Archive member included to satisfy reference by file (symbol)

/home/alpha/altera/15.1/nios2eds/bin/gnu/H-x86_64-pc-linux-gnu/bin/../lib/gcc/nios2-elf/4.9.2/../../../../../H-x86_64-pc-linux-gnu/nios2-elf/lib/libstdc++.a(class_type_info.o)
                              obj/default/LCD/Color.o (vtable for __cxxabiv1::__class_type_info)
/home/alpha/altera/15.1/nios2eds/bin/gnu/H-x86_64-pc-linux-gnu/bin/../lib/gcc/nios2-elf/4.9.2/../../../../../H-x86_64-pc-linux-gnu/nios2-elf/lib/libstdc++.a(del_op.o)
                              obj/default/LCD/Color.o (operator delete(void*))
/home/alpha/altera/15.1/nios2eds/bin/gnu/H-x86_64-pc-linux-gnu/bin/../lib/gcc/nios2-elf/4.9.2/../../../../../H-x86_64-pc-linux-gnu/nios2-elf/lib/libstdc++.a(si_class_type_info.o)
                              /home/alpha/altera/15.1/nios2eds/bin/gnu/H-x86_64-pc-linux-gnu/bin/../lib/gcc/nios2-elf/4.9.2/../../../../../H-x86_64-pc-linux-gnu/nios2-elf/lib/libstdc++.a(class_type_info.o) (vtable for __cxxabiv1::__si_class_type_info)
/home/alpha/altera/15.1/nios2eds/bin/gnu/H-x86_64-pc-linux-gnu/bin/../lib/gcc/nios2-elf/4.9.2/../../../../../H-x86_64-pc-linux-gnu/nios2-elf/lib/libstdc++.a(tinfo.o)
                              /home/alpha/altera/15.1/nios2eds/bin/gnu/H-x86_64-pc-linux-gnu/bin/../lib/gcc/nios2-elf/4.9.2/../../../../../H-x86_64-pc-linux-gnu/nios2-elf/lib/libstdc++.a(class_type_info.o) (std::type_info::~type_info())
/home/alpha/altera/15.1/nios2eds/bin/gnu/H-x86_64-pc-linux-gnu/bin/../lib/gcc/nios2-elf/4.9.2/../../../../../H-x86_64-pc-linux-gnu/nios2-elf/lib/libc.a(lib_a-malloc.o)
                              /home/alpha/altera/15.1/nios2eds/bin/gnu/H-x86_64-pc-linux-gnu/bin/../lib/gcc/nios2-elf/4.9.2/../../../../../H-x86_64-pc-linux-gnu/nios2-elf/lib/libstdc++.a(del_op.o) (free)
/home/alpha/altera/15.1/nios2eds/bin/gnu/H-x86_64-pc-linux-gnu/bin/../lib/gcc/nios2-elf/4.9.2/../../../../../H-x86_64-pc-linux-gnu/nios2-elf/lib/libc.a(lib_a-mallocr.o)
                              /home/alpha/altera/15.1/nios2eds/bin/gnu/H-x86_64-pc-linux-gnu/bin/../lib/gcc/nios2-elf/4.9.2/../../../../../H-x86_64-pc-linux-gnu/nios2-elf/lib/libc.a(lib_a-malloc.o) (_malloc_r)
/home/alpha/altera/15.1/nios2eds/bin/gnu/H-x86_64-pc-linux-gnu/bin/../lib/gcc/nios2-elf/4.9.2/../../../../../H-x86_64-pc-linux-gnu/nios2-elf/lib/libc.a(lib_a-puts.o)
                              obj/default/main.o (puts)
/home/alpha/altera/15.1/nios2eds/bin/gnu/H-x86_64-pc-linux-gnu/bin/../lib/gcc/nios2-elf/4.9.2/../../../../../H-x86_64-pc-linux-gnu/nios2-elf/lib/libc.a(lib_a-sbrkr.o)
                              /home/alpha/altera/15.1/nios2eds/bin/gnu/H-x86_64-pc-linux-gnu/bin/../lib/gcc/nios2-elf/4.9.2/../../../../../H-x86_64-pc-linux-gnu/nios2-elf/lib/libc.a(lib_a-mallocr.o) (_sbrk_r)
/home/alpha/altera/15.1/nios2eds/bin/gnu/H-x86_64-pc-linux-gnu/bin/../lib/gcc/nios2-elf/4.9.2/../../../../../H-x86_64-pc-linux-gnu/nios2-elf/lib/libc.a(lib_a-strcmp.o)
                              /home/alpha/altera/15.1/nios2eds/bin/gnu/H-x86_64-pc-linux-gnu/bin/../lib/gcc/nios2-elf/4.9.2/../../../../../H-x86_64-pc-linux-gnu/nios2-elf/lib/libstdc++.a(class_type_info.o) (strcmp)
/home/alpha/altera/15.1/nios2eds/bin/gnu/H-x86_64-pc-linux-gnu/bin/../lib/gcc/nios2-elf/4.9.2/../../../../../H-x86_64-pc-linux-gnu/nios2-elf/lib/libc.a(lib_a-strlen.o)
                              /home/alpha/altera/15.1/nios2eds/bin/gnu/H-x86_64-pc-linux-gnu/bin/../lib/gcc/nios2-elf/4.9.2/../../../../../H-x86_64-pc-linux-gnu/nios2-elf/lib/libc.a(lib_a-puts.o) (strlen)
/home/alpha/altera/15.1/nios2eds/bin/gnu/H-x86_64-pc-linux-gnu/bin/../lib/gcc/nios2-elf/4.9.2/../../../../../H-x86_64-pc-linux-gnu/nios2-elf/lib/libc.a(lib_a-freer.o)
                              /home/alpha/altera/15.1/nios2eds/bin/gnu/H-x86_64-pc-linux-gnu/bin/../lib/gcc/nios2-elf/4.9.2/../../../../../H-x86_64-pc-linux-gnu/nios2-elf/lib/libc.a(lib_a-malloc.o) (_free_r)
/home/alpha/altera/15.1/nios2eds/bin/gnu/H-x86_64-pc-linux-gnu/bin/../lib/gcc/nios2-elf/4.9.2/../../../../../H-x86_64-pc-linux-gnu/nios2-elf/lib/libc.a(lib_a-fvwrite.o)
                              /home/alpha/altera/15.1/nios2eds/bin/gnu/H-x86_64-pc-linux-gnu/bin/../lib/gcc/nios2-elf/4.9.2/../../../../../H-x86_64-pc-linux-gnu/nios2-elf/lib/libc.a(lib_a-puts.o) (__sfvwrite_r)
/home/alpha/altera/15.1/nios2eds/bin/gnu/H-x86_64-pc-linux-gnu/bin/../lib/gcc/nios2-elf/4.9.2/../../../../../H-x86_64-pc-linux-gnu/nios2-elf/lib/libc.a(lib_a-impure.o)
                              /home/alpha/altera/15.1/nios2eds/bin/gnu/H-x86_64-pc-linux-gnu/bin/../lib/gcc/nios2-elf/4.9.2/../../../../../H-x86_64-pc-linux-gnu/nios2-elf/lib/libc.a(lib_a-malloc.o) (_impure_ptr)
/home/alpha/altera/15.1/nios2eds/bin/gnu/H-x86_64-pc-linux-gnu/bin/../lib/gcc/nios2-elf/4.9.2/../../../../../H-x86_64-pc-linux-gnu/nios2-elf/lib/libc.a(lib_a-int_errno.o)
                              /home/alpha/altera/15.1/nios2eds/bin/gnu/H-x86_64-pc-linux-gnu/bin/../lib/gcc/nios2-elf/4.9.2/../../../../../H-x86_64-pc-linux-gnu/nios2-elf/lib/libc.a(lib_a-sbrkr.o) (errno)
/home/alpha/altera/15.1/nios2eds/bin/gnu/H-x86_64-pc-linux-gnu/bin/../lib/gcc/nios2-elf/4.9.2/../../../../../H-x86_64-pc-linux-gnu/nios2-elf/lib/libc.a(lib_a-memchr.o)
                              /home/alpha/altera/15.1/nios2eds/bin/gnu/H-x86_64-pc-linux-gnu/bin/../lib/gcc/nios2-elf/4.9.2/../../../../../H-x86_64-pc-linux-gnu/nios2-elf/lib/libc.a(lib_a-fvwrite.o) (memchr)
/home/alpha/altera/15.1/nios2eds/bin/gnu/H-x86_64-pc-linux-gnu/bin/../lib/gcc/nios2-elf/4.9.2/../../../../../H-x86_64-pc-linux-gnu/nios2-elf/lib/libc.a(lib_a-memcpy.o)
                              /home/alpha/altera/15.1/nios2eds/bin/gnu/H-x86_64-pc-linux-gnu/bin/../lib/gcc/nios2-elf/4.9.2/../../../../../H-x86_64-pc-linux-gnu/nios2-elf/lib/libc.a(lib_a-fvwrite.o) (memcpy)
/home/alpha/altera/15.1/nios2eds/bin/gnu/H-x86_64-pc-linux-gnu/bin/../lib/gcc/nios2-elf/4.9.2/../../../../../H-x86_64-pc-linux-gnu/nios2-elf/lib/libc.a(lib_a-memmove.o)
                              /home/alpha/altera/15.1/nios2eds/bin/gnu/H-x86_64-pc-linux-gnu/bin/../lib/gcc/nios2-elf/4.9.2/../../../../../H-x86_64-pc-linux-gnu/nios2-elf/lib/libc.a(lib_a-fvwrite.o) (memmove)
/home/alpha/altera/15.1/nios2eds/bin/gnu/H-x86_64-pc-linux-gnu/bin/../lib/gcc/nios2-elf/4.9.2/../../../../../H-x86_64-pc-linux-gnu/nios2-elf/lib/libc.a(lib_a-reallocr.o)
                              /home/alpha/altera/15.1/nios2eds/bin/gnu/H-x86_64-pc-linux-gnu/bin/../lib/gcc/nios2-elf/4.9.2/../../../../../H-x86_64-pc-linux-gnu/nios2-elf/lib/libc.a(lib_a-fvwrite.o) (_realloc_r)
/home/alpha/altera/15.1/nios2eds/bin/gnu/H-x86_64-pc-linux-gnu/bin/../lib/gcc/nios2-elf/4.9.2/../../../../../H-x86_64-pc-linux-gnu/nios2-elf/lib/libc.a(lib_a-wsetup.o)
                              /home/alpha/altera/15.1/nios2eds/bin/gnu/H-x86_64-pc-linux-gnu/bin/../lib/gcc/nios2-elf/4.9.2/../../../../../H-x86_64-pc-linux-gnu/nios2-elf/lib/libc.a(lib_a-fvwrite.o) (__swsetup_r)
/home/alpha/altera/15.1/nios2eds/bin/gnu/H-x86_64-pc-linux-gnu/bin/../lib/gcc/nios2-elf/4.9.2/../../../../../H-x86_64-pc-linux-gnu/nios2-elf/lib/libc.a(lib_a-fflush.o)
                              /home/alpha/altera/15.1/nios2eds/bin/gnu/H-x86_64-pc-linux-gnu/bin/../lib/gcc/nios2-elf/4.9.2/../../../../../H-x86_64-pc-linux-gnu/nios2-elf/lib/libc.a(lib_a-fvwrite.o) (_fflush_r)
/home/alpha/altera/15.1/nios2eds/bin/gnu/H-x86_64-pc-linux-gnu/bin/../lib/gcc/nios2-elf/4.9.2/../../../../../H-x86_64-pc-linux-gnu/nios2-elf/lib/libc.a(lib_a-findfp.o)
                              /home/alpha/altera/15.1/nios2eds/bin/gnu/H-x86_64-pc-linux-gnu/bin/../lib/gcc/nios2-elf/4.9.2/../../../../../H-x86_64-pc-linux-gnu/nios2-elf/lib/libc.a(lib_a-wsetup.o) (__sinit)
/home/alpha/altera/15.1/nios2eds/bin/gnu/H-x86_64-pc-linux-gnu/bin/../lib/gcc/nios2-elf/4.9.2/../../../../../H-x86_64-pc-linux-gnu/nios2-elf/lib/libc.a(lib_a-fwalk.o)
                              /home/alpha/altera/15.1/nios2eds/bin/gnu/H-x86_64-pc-linux-gnu/bin/../lib/gcc/nios2-elf/4.9.2/../../../../../H-x86_64-pc-linux-gnu/nios2-elf/lib/libc.a(lib_a-findfp.o) (_fwalk)
/home/alpha/altera/15.1/nios2eds/bin/gnu/H-x86_64-pc-linux-gnu/bin/../lib/gcc/nios2-elf/4.9.2/../../../../../H-x86_64-pc-linux-gnu/nios2-elf/lib/libc.a(lib_a-makebuf.o)
                              /home/alpha/altera/15.1/nios2eds/bin/gnu/H-x86_64-pc-linux-gnu/bin/../lib/gcc/nios2-elf/4.9.2/../../../../../H-x86_64-pc-linux-gnu/nios2-elf/lib/libc.a(lib_a-wsetup.o) (__smakebuf_r)
/home/alpha/altera/15.1/nios2eds/bin/gnu/H-x86_64-pc-linux-gnu/bin/../lib/gcc/nios2-elf/4.9.2/../../../../../H-x86_64-pc-linux-gnu/nios2-elf/lib/libc.a(lib_a-memset.o)
                              /home/alpha/altera/15.1/nios2eds/bin/gnu/H-x86_64-pc-linux-gnu/bin/../lib/gcc/nios2-elf/4.9.2/../../../../../H-x86_64-pc-linux-gnu/nios2-elf/lib/libc.a(lib_a-findfp.o) (memset)
/home/alpha/altera/15.1/nios2eds/bin/gnu/H-x86_64-pc-linux-gnu/bin/../lib/gcc/nios2-elf/4.9.2/../../../../../H-x86_64-pc-linux-gnu/nios2-elf/lib/libc.a(lib_a-stdio.o)
                              /home/alpha/altera/15.1/nios2eds/bin/gnu/H-x86_64-pc-linux-gnu/bin/../lib/gcc/nios2-elf/4.9.2/../../../../../H-x86_64-pc-linux-gnu/nios2-elf/lib/libc.a(lib_a-findfp.o) (__sread)
/home/alpha/altera/15.1/nios2eds/bin/gnu/H-x86_64-pc-linux-gnu/bin/../lib/gcc/nios2-elf/4.9.2/../../../../../H-x86_64-pc-linux-gnu/nios2-elf/lib/libc.a(lib_a-writer.o)
                              /home/alpha/altera/15.1/nios2eds/bin/gnu/H-x86_64-pc-linux-gnu/bin/../lib/gcc/nios2-elf/4.9.2/../../../../../H-x86_64-pc-linux-gnu/nios2-elf/lib/libc.a(lib_a-stdio.o) (_write_r)
/home/alpha/altera/15.1/nios2eds/bin/gnu/H-x86_64-pc-linux-gnu/bin/../lib/gcc/nios2-elf/4.9.2/../../../../../H-x86_64-pc-linux-gnu/nios2-elf/lib/libc.a(closer.o)
                              /home/alpha/altera/15.1/nios2eds/bin/gnu/H-x86_64-pc-linux-gnu/bin/../lib/gcc/nios2-elf/4.9.2/../../../../../H-x86_64-pc-linux-gnu/nios2-elf/lib/libc.a(lib_a-stdio.o) (_close_r)
/home/alpha/altera/15.1/nios2eds/bin/gnu/H-x86_64-pc-linux-gnu/bin/../lib/gcc/nios2-elf/4.9.2/../../../../../H-x86_64-pc-linux-gnu/nios2-elf/lib/libc.a(lib_a-fclose.o)
                              /home/alpha/altera/15.1/nios2eds/bin/gnu/H-x86_64-pc-linux-gnu/bin/../lib/gcc/nios2-elf/4.9.2/../../../../../H-x86_64-pc-linux-gnu/nios2-elf/lib/libc.a(lib_a-findfp.o) (_fclose_r)
/home/alpha/altera/15.1/nios2eds/bin/gnu/H-x86_64-pc-linux-gnu/bin/../lib/gcc/nios2-elf/4.9.2/../../../../../H-x86_64-pc-linux-gnu/nios2-elf/lib/libc.a(lib_a-fstatr.o)
                              /home/alpha/altera/15.1/nios2eds/bin/gnu/H-x86_64-pc-linux-gnu/bin/../lib/gcc/nios2-elf/4.9.2/../../../../../H-x86_64-pc-linux-gnu/nios2-elf/lib/libc.a(lib_a-makebuf.o) (_fstat_r)
/home/alpha/altera/15.1/nios2eds/bin/gnu/H-x86_64-pc-linux-gnu/bin/../lib/gcc/nios2-elf/4.9.2/../../../../../H-x86_64-pc-linux-gnu/nios2-elf/lib/libc.a(lib_a-isattyr.o)
                              /home/alpha/altera/15.1/nios2eds/bin/gnu/H-x86_64-pc-linux-gnu/bin/../lib/gcc/nios2-elf/4.9.2/../../../../../H-x86_64-pc-linux-gnu/nios2-elf/lib/libc.a(lib_a-makebuf.o) (_isatty_r)
/home/alpha/altera/15.1/nios2eds/bin/gnu/H-x86_64-pc-linux-gnu/bin/../lib/gcc/nios2-elf/4.9.2/../../../../../H-x86_64-pc-linux-gnu/nios2-elf/lib/libc.a(lib_a-lseekr.o)
                              /home/alpha/altera/15.1/nios2eds/bin/gnu/H-x86_64-pc-linux-gnu/bin/../lib/gcc/nios2-elf/4.9.2/../../../../../H-x86_64-pc-linux-gnu/nios2-elf/lib/libc.a(lib_a-stdio.o) (_lseek_r)
/home/alpha/altera/15.1/nios2eds/bin/gnu/H-x86_64-pc-linux-gnu/bin/../lib/gcc/nios2-elf/4.9.2/../../../../../H-x86_64-pc-linux-gnu/nios2-elf/lib/libc.a(lib_a-readr.o)
                              /home/alpha/altera/15.1/nios2eds/bin/gnu/H-x86_64-pc-linux-gnu/bin/../lib/gcc/nios2-elf/4.9.2/../../../../../H-x86_64-pc-linux-gnu/nios2-elf/lib/libc.a(lib_a-stdio.o) (_read_r)
/home/alpha/altera/15.1/nios2eds/bin/gnu/H-x86_64-pc-linux-gnu/bin/../lib/gcc/nios2-elf/4.9.2/libgcc.a(lib2-divmod.o)
                              /home/alpha/altera/15.1/nios2eds/bin/gnu/H-x86_64-pc-linux-gnu/bin/../lib/gcc/nios2-elf/4.9.2/../../../../../H-x86_64-pc-linux-gnu/nios2-elf/lib/libc.a(lib_a-fvwrite.o) (__divsi3)
../recorder_nios_bsp//libucosii_bsp.a(alt_close.o)
                              /home/alpha/altera/15.1/nios2eds/bin/gnu/H-x86_64-pc-linux-gnu/bin/../lib/gcc/nios2-elf/4.9.2/../../../../../H-x86_64-pc-linux-gnu/nios2-elf/lib/libc.a(closer.o) (close)
../recorder_nios_bsp//libucosii_bsp.a(alt_dev.o)
                              ../recorder_nios_bsp//libucosii_bsp.a(alt_close.o) (alt_fd_list)
../recorder_nios_bsp//libucosii_bsp.a(alt_errno.o)
                              ../recorder_nios_bsp//libucosii_bsp.a(alt_close.o) (alt_errno)
../recorder_nios_bsp//libucosii_bsp.a(alt_fstat.o)
                              /home/alpha/altera/15.1/nios2eds/bin/gnu/H-x86_64-pc-linux-gnu/bin/../lib/gcc/nios2-elf/4.9.2/../../../../../H-x86_64-pc-linux-gnu/nios2-elf/lib/libc.a(lib_a-fstatr.o) (fstat)
../recorder_nios_bsp//libucosii_bsp.a(alt_isatty.o)
                              /home/alpha/altera/15.1/nios2eds/bin/gnu/H-x86_64-pc-linux-gnu/bin/../lib/gcc/nios2-elf/4.9.2/../../../../../H-x86_64-pc-linux-gnu/nios2-elf/lib/libc.a(lib_a-isattyr.o) (isatty)
../recorder_nios_bsp//libucosii_bsp.a(alt_load.o)
                              ../recorder_nios_bsp//obj/HAL/src/crt0.o (alt_load)
../recorder_nios_bsp//libucosii_bsp.a(alt_lseek.o)
                              /home/alpha/altera/15.1/nios2eds/bin/gnu/H-x86_64-pc-linux-gnu/bin/../lib/gcc/nios2-elf/4.9.2/../../../../../H-x86_64-pc-linux-gnu/nios2-elf/lib/libc.a(lib_a-lseekr.o) (lseek)
../recorder_nios_bsp//libucosii_bsp.a(alt_main.o)
                              ../recorder_nios_bsp//obj/HAL/src/crt0.o (alt_main)
../recorder_nios_bsp//libucosii_bsp.a(alt_read.o)
                              /home/alpha/altera/15.1/nios2eds/bin/gnu/H-x86_64-pc-linux-gnu/bin/../lib/gcc/nios2-elf/4.9.2/../../../../../H-x86_64-pc-linux-gnu/nios2-elf/lib/libc.a(lib_a-readr.o) (read)
../recorder_nios_bsp//libucosii_bsp.a(alt_release_fd.o)
                              ../recorder_nios_bsp//libucosii_bsp.a(alt_close.o) (alt_release_fd)
../recorder_nios_bsp//libucosii_bsp.a(alt_sbrk.o)
                              /home/alpha/altera/15.1/nios2eds/bin/gnu/H-x86_64-pc-linux-gnu/bin/../lib/gcc/nios2-elf/4.9.2/../../../../../H-x86_64-pc-linux-gnu/nios2-elf/lib/libc.a(lib_a-sbrkr.o) (sbrk)
../recorder_nios_bsp//libucosii_bsp.a(alt_write.o)
                              /home/alpha/altera/15.1/nios2eds/bin/gnu/H-x86_64-pc-linux-gnu/bin/../lib/gcc/nios2-elf/4.9.2/../../../../../H-x86_64-pc-linux-gnu/nios2-elf/lib/libc.a(lib_a-writer.o) (write)
../recorder_nios_bsp//libucosii_bsp.a(alt_env_lock.o)
                              ../recorder_nios_bsp//libucosii_bsp.a(alt_main.o) (alt_envsem)
../recorder_nios_bsp//libucosii_bsp.a(alt_malloc_lock.o)
                              ../recorder_nios_bsp//libucosii_bsp.a(alt_main.o) (alt_heapsem)
../recorder_nios_bsp//libucosii_bsp.a(os_core.o)
                              ../recorder_nios_bsp//libucosii_bsp.a(alt_malloc_lock.o) (OSRunning)
../recorder_nios_bsp//libucosii_bsp.a(os_dbg.o)
                              ../recorder_nios_bsp//libucosii_bsp.a(os_core.o) (OSDebugInit)
../recorder_nios_bsp//libucosii_bsp.a(os_flag.o)
                              ../recorder_nios_bsp//libucosii_bsp.a(os_core.o) (OS_FlagInit)
../recorder_nios_bsp//libucosii_bsp.a(os_mem.o)
                              ../recorder_nios_bsp//libucosii_bsp.a(os_core.o) (OS_MemInit)
../recorder_nios_bsp//libucosii_bsp.a(os_q.o)
                              ../recorder_nios_bsp//libucosii_bsp.a(os_core.o) (OS_QInit)
../recorder_nios_bsp//libucosii_bsp.a(os_sem.o)
                              ../recorder_nios_bsp//libucosii_bsp.a(alt_main.o) (OSSemCreate)
../recorder_nios_bsp//libucosii_bsp.a(os_task.o)
                              obj/default/main.o (OSTaskCreateExt)
../recorder_nios_bsp//libucosii_bsp.a(os_time.o)
                              ../recorder_nios_bsp//libucosii_bsp.a(os_core.o) (OSTimeDly)
../recorder_nios_bsp//libucosii_bsp.a(alt_sys_init.o)
                              ../recorder_nios_bsp//libucosii_bsp.a(alt_main.o) (alt_irq_init)
../recorder_nios_bsp//libucosii_bsp.a(altera_avalon_jtag_uart_fd.o)
                              ../recorder_nios_bsp//libucosii_bsp.a(alt_sys_init.o) (altera_avalon_jtag_uart_read_fd)
../recorder_nios_bsp//libucosii_bsp.a(altera_avalon_jtag_uart_init.o)
                              ../recorder_nios_bsp//libucosii_bsp.a(alt_sys_init.o) (altera_avalon_jtag_uart_init)
../recorder_nios_bsp//libucosii_bsp.a(altera_avalon_jtag_uart_ioctl.o)
                              ../recorder_nios_bsp//libucosii_bsp.a(altera_avalon_jtag_uart_fd.o) (altera_avalon_jtag_uart_ioctl)
../recorder_nios_bsp//libucosii_bsp.a(altera_avalon_jtag_uart_read.o)
                              ../recorder_nios_bsp//libucosii_bsp.a(altera_avalon_jtag_uart_fd.o) (altera_avalon_jtag_uart_read)
../recorder_nios_bsp//libucosii_bsp.a(altera_avalon_jtag_uart_write.o)
                              ../recorder_nios_bsp//libucosii_bsp.a(altera_avalon_jtag_uart_fd.o) (altera_avalon_jtag_uart_write)
../recorder_nios_bsp//libucosii_bsp.a(altera_avalon_timer_sc.o)
                              ../recorder_nios_bsp//libucosii_bsp.a(alt_sys_init.o) (alt_avalon_timer_sc_init)
../recorder_nios_bsp//libucosii_bsp.a(altera_up_avalon_audio.o)
                              obj/default/audio/audio_core.o (alt_up_audio_open_dev)
../recorder_nios_bsp//libucosii_bsp.a(altera_up_avalon_video_pixel_buffer_dma.o)
                              obj/default/LCD/lcd_core.o (alt_up_pixel_buffer_dma_open_dev)
../recorder_nios_bsp//libucosii_bsp.a(alt_alarm_start.o)
                              ../recorder_nios_bsp//libucosii_bsp.a(altera_avalon_jtag_uart_init.o) (alt_alarm_start)
../recorder_nios_bsp//libucosii_bsp.a(alt_dcache_flush_all.o)
                              ../recorder_nios_bsp//libucosii_bsp.a(alt_load.o) (alt_dcache_flush_all)
../recorder_nios_bsp//libucosii_bsp.a(alt_dev_llist_insert.o)
                              ../recorder_nios_bsp//libucosii_bsp.a(alt_sys_init.o) (alt_dev_llist_insert)
../recorder_nios_bsp//libucosii_bsp.a(alt_do_ctors.o)
                              ../recorder_nios_bsp//libucosii_bsp.a(alt_main.o) (_do_ctors)
../recorder_nios_bsp//libucosii_bsp.a(alt_do_dtors.o)
                              ../recorder_nios_bsp//libucosii_bsp.a(alt_main.o) (_do_dtors)
../recorder_nios_bsp//libucosii_bsp.a(alt_find_dev.o)
                              ../recorder_nios_bsp//libucosii_bsp.a(altera_up_avalon_audio.o) (alt_find_dev)
../recorder_nios_bsp//libucosii_bsp.a(alt_icache_flush_all.o)
                              ../recorder_nios_bsp//libucosii_bsp.a(alt_load.o) (alt_icache_flush_all)
../recorder_nios_bsp//libucosii_bsp.a(alt_io_redirect.o)
                              ../recorder_nios_bsp//libucosii_bsp.a(alt_main.o) (alt_io_redirect)
../recorder_nios_bsp//libucosii_bsp.a(alt_irq_register.o)
                              ../recorder_nios_bsp//libucosii_bsp.a(altera_avalon_jtag_uart_init.o) (alt_irq_register)
../recorder_nios_bsp//libucosii_bsp.a(alt_irq_vars.o)
                              ../recorder_nios_bsp//libucosii_bsp.a(alt_irq_register.o) (alt_irq_active)
../recorder_nios_bsp//libucosii_bsp.a(alt_open.o)
                              ../recorder_nios_bsp//libucosii_bsp.a(alt_io_redirect.o) (open)
../recorder_nios_bsp//libucosii_bsp.a(alt_tick.o)
                              ../recorder_nios_bsp//libucosii_bsp.a(altera_avalon_jtag_uart_init.o) (_alt_tick_rate)
../recorder_nios_bsp//libucosii_bsp.a(altera_nios2_gen2_irq.o)
                              ../recorder_nios_bsp//libucosii_bsp.a(alt_sys_init.o) (altera_nios2_gen2_irq_init)
../recorder_nios_bsp//libucosii_bsp.a(os_cpu_a.o)
                              ../recorder_nios_bsp//libucosii_bsp.a(os_core.o) (OSIntCtxSw)
../recorder_nios_bsp//libucosii_bsp.a(os_cpu_c.o)
                              ../recorder_nios_bsp//libucosii_bsp.a(os_task.o) (OSTaskStkInit)
../recorder_nios_bsp//libucosii_bsp.a(alt_find_file.o)
                              ../recorder_nios_bsp//libucosii_bsp.a(alt_open.o) (alt_find_file)
../recorder_nios_bsp//libucosii_bsp.a(alt_get_fd.o)
                              ../recorder_nios_bsp//libucosii_bsp.a(alt_open.o) (alt_get_fd)
../recorder_nios_bsp//libucosii_bsp.a(alt_icache_flush.o)
                              ../recorder_nios_bsp//libucosii_bsp.a(alt_icache_flush_all.o) (alt_icache_flush)
../recorder_nios_bsp//libucosii_bsp.a(alt_irq_entry.o)
                              ../recorder_nios_bsp//libucosii_bsp.a(alt_irq_register.o) (alt_irq_entry)
../recorder_nios_bsp//libucosii_bsp.a(alt_irq_handler.o)
                              ../recorder_nios_bsp//libucosii_bsp.a(alt_irq_register.o) (alt_irq)
../recorder_nios_bsp//libucosii_bsp.a(alt_exception_entry.o)
                              ../recorder_nios_bsp//libucosii_bsp.a(alt_irq_entry.o) (alt_exception)
../recorder_nios_bsp//libucosii_bsp.a(alt_instruction_exception_entry.o)
                              ../recorder_nios_bsp//libucosii_bsp.a(alt_exception_entry.o) (alt_instruction_exception_entry)
/home/alpha/altera/15.1/nios2eds/bin/gnu/H-x86_64-pc-linux-gnu/bin/../lib/gcc/nios2-elf/4.9.2/../../../../../H-x86_64-pc-linux-gnu/nios2-elf/lib/libc.a(lib_a-atexit.o)
                              ../recorder_nios_bsp//libucosii_bsp.a(alt_main.o) (atexit)
/home/alpha/altera/15.1/nios2eds/bin/gnu/H-x86_64-pc-linux-gnu/bin/../lib/gcc/nios2-elf/4.9.2/../../../../../H-x86_64-pc-linux-gnu/nios2-elf/lib/libc.a(lib_a-exit.o)
                              ../recorder_nios_bsp//libucosii_bsp.a(alt_main.o) (exit)
/home/alpha/altera/15.1/nios2eds/bin/gnu/H-x86_64-pc-linux-gnu/bin/../lib/gcc/nios2-elf/4.9.2/../../../../../H-x86_64-pc-linux-gnu/nios2-elf/lib/libc.a(lib_a-memcmp.o)
                              ../recorder_nios_bsp//libucosii_bsp.a(alt_find_dev.o) (memcmp)
/home/alpha/altera/15.1/nios2eds/bin/gnu/H-x86_64-pc-linux-gnu/bin/../lib/gcc/nios2-elf/4.9.2/../../../../../H-x86_64-pc-linux-gnu/nios2-elf/lib/libc.a(lib_a-__atexit.o)
                              /home/alpha/altera/15.1/nios2eds/bin/gnu/H-x86_64-pc-linux-gnu/bin/../lib/gcc/nios2-elf/4.9.2/../../../../../H-x86_64-pc-linux-gnu/nios2-elf/lib/libc.a(lib_a-atexit.o) (__register_exitproc)
/home/alpha/altera/15.1/nios2eds/bin/gnu/H-x86_64-pc-linux-gnu/bin/../lib/gcc/nios2-elf/4.9.2/../../../../../H-x86_64-pc-linux-gnu/nios2-elf/lib/libc.a(lib_a-__call_atexit.o)
                              /home/alpha/altera/15.1/nios2eds/bin/gnu/H-x86_64-pc-linux-gnu/bin/../lib/gcc/nios2-elf/4.9.2/../../../../../H-x86_64-pc-linux-gnu/nios2-elf/lib/libc.a(lib_a-exit.o) (__call_exitprocs)
../recorder_nios_bsp//libucosii_bsp.a(alt_exit.o)
                              /home/alpha/altera/15.1/nios2eds/bin/gnu/H-x86_64-pc-linux-gnu/bin/../lib/gcc/nios2-elf/4.9.2/../../../../../H-x86_64-pc-linux-gnu/nios2-elf/lib/libc.a(lib_a-exit.o) (_exit)

Allocating common symbols
Common symbol       size              file

alt_irq             0x100             ../recorder_nios_bsp//libucosii_bsp.a(alt_irq_handler.o)
OSLockNesting       0x1               ../recorder_nios_bsp//libucosii_bsp.a(os_core.o)
OSRunning           0x1               ../recorder_nios_bsp//libucosii_bsp.a(os_core.o)
OSIdleCtr           0x4               ../recorder_nios_bsp//libucosii_bsp.a(os_core.o)
OSPrioHighRdy       0x1               ../recorder_nios_bsp//libucosii_bsp.a(os_core.o)
errno               0x4               /home/alpha/altera/15.1/nios2eds/bin/gnu/H-x86_64-pc-linux-gnu/bin/../lib/gcc/nios2-elf/4.9.2/../../../../../H-x86_64-pc-linux-gnu/nios2-elf/lib/libc.a(lib_a-int_errno.o)
alt_heapsem         0x4               ../recorder_nios_bsp//libucosii_bsp.a(alt_malloc_lock.o)
OSFlagTbl           0x370             ../recorder_nios_bsp//libucosii_bsp.a(os_core.o)
OSPrioCur           0x1               ../recorder_nios_bsp//libucosii_bsp.a(os_core.o)
OSTCBList           0x4               ../recorder_nios_bsp//libucosii_bsp.a(os_core.o)
alt_fd_list_lock    0x4               ../recorder_nios_bsp//libucosii_bsp.a(alt_dev.o)
OSMemTbl            0xc30             ../recorder_nios_bsp//libucosii_bsp.a(os_core.o)
OSTickStepState     0x1               ../recorder_nios_bsp//libucosii_bsp.a(os_core.o)
OSTaskStatStk       0x800             ../recorder_nios_bsp//libucosii_bsp.a(os_core.o)
OSCtxSwCtr          0x4               ../recorder_nios_bsp//libucosii_bsp.a(os_core.o)
OSIdleCtrMax        0x4               ../recorder_nios_bsp//libucosii_bsp.a(os_core.o)
OSTCBFreeList       0x4               ../recorder_nios_bsp//libucosii_bsp.a(os_core.o)
OSCPUUsage          0x1               ../recorder_nios_bsp//libucosii_bsp.a(os_core.o)
OSTaskCtr           0x1               ../recorder_nios_bsp//libucosii_bsp.a(os_core.o)
OSMemFreeList       0x4               ../recorder_nios_bsp//libucosii_bsp.a(os_core.o)
OSQTbl              0x1e0             ../recorder_nios_bsp//libucosii_bsp.a(os_core.o)
OSTCBHighRdy        0x4               ../recorder_nios_bsp//libucosii_bsp.a(os_core.o)
OSQFreeList         0x4               ../recorder_nios_bsp//libucosii_bsp.a(os_core.o)
OSRdyGrp            0x1               ../recorder_nios_bsp//libucosii_bsp.a(os_core.o)
OSRdyTbl            0x3               ../recorder_nios_bsp//libucosii_bsp.a(os_core.o)
OSEventFreeList     0x4               ../recorder_nios_bsp//libucosii_bsp.a(os_core.o)
OSIntNesting        0x1               ../recorder_nios_bsp//libucosii_bsp.a(os_core.o)
OSTCBCur            0x4               ../recorder_nios_bsp//libucosii_bsp.a(os_core.o)
OSTime              0x4               ../recorder_nios_bsp//libucosii_bsp.a(os_core.o)
OSTaskIdleStk       0x800             ../recorder_nios_bsp//libucosii_bsp.a(os_core.o)
OSEventTbl          0xb40             ../recorder_nios_bsp//libucosii_bsp.a(os_core.o)
OSTCBTbl            0x510             ../recorder_nios_bsp//libucosii_bsp.a(os_core.o)
OSFlagFreeList      0x4               ../recorder_nios_bsp//libucosii_bsp.a(os_core.o)
OSStatRdy           0x1               ../recorder_nios_bsp//libucosii_bsp.a(os_core.o)
OSTCBPrioTbl        0x54              ../recorder_nios_bsp//libucosii_bsp.a(os_core.o)
alt_envsem          0x4               ../recorder_nios_bsp//libucosii_bsp.a(alt_env_lock.o)
OSIdleCtrRun        0x4               ../recorder_nios_bsp//libucosii_bsp.a(os_core.o)

Discarded input sections

 .group         0x0000000000000000        0x8 obj/default/LCD/Color.o
 .group         0x0000000000000000        0x8 obj/default/LCD/Color.o
 .group         0x0000000000000000        0x8 obj/default/LCD/Color.o
 .group         0x0000000000000000        0x8 obj/default/audio/audio_core.o
 .group         0x0000000000000000        0x8 obj/default/audio/audio_core.o
 .group         0x0000000000000000        0x8 /home/alpha/altera/15.1/nios2eds/bin/gnu/H-x86_64-pc-linux-gnu/bin/../lib/gcc/nios2-elf/4.9.2/../../../../../H-x86_64-pc-linux-gnu/nios2-elf/lib/libstdc++.a(class_type_info.o)
 .group         0x0000000000000000        0x8 /home/alpha/altera/15.1/nios2eds/bin/gnu/H-x86_64-pc-linux-gnu/bin/../lib/gcc/nios2-elf/4.9.2/../../../../../H-x86_64-pc-linux-gnu/nios2-elf/lib/libstdc++.a(class_type_info.o)
 .group         0x0000000000000000        0x8 /home/alpha/altera/15.1/nios2eds/bin/gnu/H-x86_64-pc-linux-gnu/bin/../lib/gcc/nios2-elf/4.9.2/../../../../../H-x86_64-pc-linux-gnu/nios2-elf/lib/libstdc++.a(class_type_info.o)
 .group         0x0000000000000000        0x8 /home/alpha/altera/15.1/nios2eds/bin/gnu/H-x86_64-pc-linux-gnu/bin/../lib/gcc/nios2-elf/4.9.2/../../../../../H-x86_64-pc-linux-gnu/nios2-elf/lib/libstdc++.a(si_class_type_info.o)
 .group         0x0000000000000000        0x8 /home/alpha/altera/15.1/nios2eds/bin/gnu/H-x86_64-pc-linux-gnu/bin/../lib/gcc/nios2-elf/4.9.2/../../../../../H-x86_64-pc-linux-gnu/nios2-elf/lib/libstdc++.a(si_class_type_info.o)
 .group         0x0000000000000000        0x8 /home/alpha/altera/15.1/nios2eds/bin/gnu/H-x86_64-pc-linux-gnu/bin/../lib/gcc/nios2-elf/4.9.2/../../../../../H-x86_64-pc-linux-gnu/nios2-elf/lib/libstdc++.a(si_class_type_info.o)
 .group         0x0000000000000000        0x8 /home/alpha/altera/15.1/nios2eds/bin/gnu/H-x86_64-pc-linux-gnu/bin/../lib/gcc/nios2-elf/4.9.2/../../../../../H-x86_64-pc-linux-gnu/nios2-elf/lib/libstdc++.a(tinfo.o)
 .group         0x0000000000000000        0x8 /home/alpha/altera/15.1/nios2eds/bin/gnu/H-x86_64-pc-linux-gnu/bin/../lib/gcc/nios2-elf/4.9.2/../../../../../H-x86_64-pc-linux-gnu/nios2-elf/lib/libstdc++.a(tinfo.o)
 .group         0x0000000000000000        0x8 /home/alpha/altera/15.1/nios2eds/bin/gnu/H-x86_64-pc-linux-gnu/bin/../lib/gcc/nios2-elf/4.9.2/../../../../../H-x86_64-pc-linux-gnu/nios2-elf/lib/libstdc++.a(tinfo.o)

Memory Configuration

Name             Origin             Length             Attributes
reset            0x0000000008000000 0x0000000000000020
sdram_controller 0x0000000008000020 0x0000000007ffffe0
onchip_memory2   0x0000000010220000 0x0000000000019000
*default*        0x0000000000000000 0xffffffffffffffff

Linker script and memory map

LOAD ../recorder_nios_bsp//obj/HAL/src/crt0.o
LOAD obj/default/LCD/font/arial18.o
LOAD obj/default/LCD/font/arial22.o
LOAD obj/default/LCD/font/arial40.o
LOAD obj/default/LCD/Color.o
LOAD obj/default/LCD/lcd_core.o
LOAD obj/default/audio/audio_core.o
LOAD obj/default/main.o
LOAD /home/alpha/altera/15.1/nios2eds/bin/gnu/H-x86_64-pc-linux-gnu/bin/../lib/gcc/nios2-elf/4.9.2/../../../../../H-x86_64-pc-linux-gnu/nios2-elf/lib/libstdc++.a
LOAD /home/alpha/altera/15.1/nios2eds/bin/gnu/H-x86_64-pc-linux-gnu/bin/../lib/gcc/nios2-elf/4.9.2/../../../../../H-x86_64-pc-linux-gnu/nios2-elf/lib/libm.a
LOAD /home/alpha/altera/15.1/nios2eds/bin/gnu/H-x86_64-pc-linux-gnu/bin/../lib/gcc/nios2-elf/4.9.2/libgcc.a
START GROUP
LOAD /home/alpha/altera/15.1/nios2eds/bin/gnu/H-x86_64-pc-linux-gnu/bin/../lib/gcc/nios2-elf/4.9.2/../../../../../H-x86_64-pc-linux-gnu/nios2-elf/lib/libc.a
LOAD /home/alpha/altera/15.1/nios2eds/bin/gnu/H-x86_64-pc-linux-gnu/bin/../lib/gcc/nios2-elf/4.9.2/libgcc.a
LOAD ../recorder_nios_bsp//libucosii_bsp.a
LOAD /home/alpha/altera/15.1/nios2eds/bin/gnu/H-x86_64-pc-linux-gnu/bin/../lib/gcc/nios2-elf/4.9.2/../../../../../H-x86_64-pc-linux-gnu/nios2-elf/lib/libm.a
END GROUP
LOAD /home/alpha/altera/15.1/nios2eds/bin/gnu/H-x86_64-pc-linux-gnu/bin/../lib/gcc/nios2-elf/4.9.2/libgcc.a
                0x0000000008000000                __alt_mem_sdram_controller = 0x8000000
                0x0000000010220000                __alt_mem_onchip_memory2 = 0x10220000

.entry          0x0000000008000000       0x20
 *(.entry)
 .entry         0x0000000008000000       0x20 ../recorder_nios_bsp//obj/HAL/src/crt0.o
                0x0000000008000000                __reset

.exceptions     0x0000000008000020      0x224
                0x0000000008000020                PROVIDE (__ram_exceptions_start, ABSOLUTE (.))
                0x0000000008000020                . = ALIGN (0x20)
 *(.irq)
 *(.exceptions.entry.label)
 .exceptions.entry.label
                0x0000000008000020        0x0 ../recorder_nios_bsp//libucosii_bsp.a(alt_irq_entry.o)
                0x0000000008000020                alt_irq_entry
 .exceptions.entry.label
                0x0000000008000020        0x0 ../recorder_nios_bsp//libucosii_bsp.a(alt_exception_entry.o)
                0x0000000008000020                alt_exception
 *(.exceptions.entry.user)
 *(.exceptions.entry.ecc_fatal)
 *(.exceptions.entry)
 .exceptions.entry
                0x0000000008000020       0x54 ../recorder_nios_bsp//libucosii_bsp.a(alt_exception_entry.o)
 *(.exceptions.irqtest.user)
 *(.exceptions.irqtest)
 .exceptions.irqtest
                0x0000000008000074       0x10 ../recorder_nios_bsp//libucosii_bsp.a(alt_irq_entry.o)
 *(.exceptions.irqhandler.user)
 *(.exceptions.irqhandler)
 .exceptions.irqhandler
                0x0000000008000084        0x4 ../recorder_nios_bsp//libucosii_bsp.a(alt_irq_entry.o)
 *(.exceptions.irqreturn.user)
 *(.exceptions.irqreturn)
 .exceptions.irqreturn
                0x0000000008000088        0x4 ../recorder_nios_bsp//libucosii_bsp.a(alt_irq_entry.o)
 *(.exceptions.notirq.label)
 .exceptions.notirq.label
                0x000000000800008c        0x0 ../recorder_nios_bsp//libucosii_bsp.a(alt_irq_entry.o)
 *(.exceptions.notirq.user)
 *(.exceptions.notirq)
 .exceptions.notirq
                0x000000000800008c        0x8 ../recorder_nios_bsp//libucosii_bsp.a(alt_exception_entry.o)
 *(.exceptions.soft.user)
 *(.exceptions.soft)
 *(.exceptions.unknown.user)
 *(.exceptions.unknown)
 .exceptions.unknown
                0x0000000008000094       0x14 ../recorder_nios_bsp//libucosii_bsp.a(alt_exception_entry.o)
 *(.exceptions.exit.label)
 .exceptions.exit.label
                0x00000000080000a8        0x0 ../recorder_nios_bsp//libucosii_bsp.a(alt_irq_entry.o)
 .exceptions.exit.label
                0x00000000080000a8        0x0 ../recorder_nios_bsp//libucosii_bsp.a(alt_exception_entry.o)
 *(.exceptions.exit.user)
 *(.exceptions.exit)
 .exceptions.exit
                0x00000000080000a8       0x54 ../recorder_nios_bsp//libucosii_bsp.a(alt_exception_entry.o)
 *(.exceptions)
 .exceptions    0x00000000080000fc       0xd4 ../recorder_nios_bsp//libucosii_bsp.a(alt_irq_handler.o)
                0x00000000080000fc                alt_irq_handler
 .exceptions    0x00000000080001d0       0x74 ../recorder_nios_bsp//libucosii_bsp.a(alt_instruction_exception_entry.o)
                0x00000000080001d0                alt_instruction_exception_entry
                0x0000000008000244                PROVIDE (__ram_exceptions_end, ABSOLUTE (.))
                0x0000000008000020                PROVIDE (__flash_exceptions_start, LOADADDR (.exceptions))

.text           0x0000000008000244    0x10044
                0x0000000008000244                PROVIDE (stext, ABSOLUTE (.))
 *(.interp)
 *(.hash)
 *(.dynsym)
 *(.dynstr)
 *(.gnu.version)
 *(.gnu.version_d)
 *(.gnu.version_r)
 *(.rel.init)
 *(.rela.init)
 *(.rel.text .rel.text.* .rel.gnu.linkonce.t.*)
 *(.rela.text .rela.text.* .rela.gnu.linkonce.t.*)
 *(.rel.fini)
 *(.rela.fini)
 *(.rel.rodata .rel.rodata.* .rel.gnu.linkonce.r.*)
 *(.rela.rodata .rela.rodata.* .rela.gnu.linkonce.r.*)
 *(.rel.data .rel.data.* .rel.gnu.linkonce.d.*)
 *(.rela.data .rela.data.* .rela.gnu.linkonce.d.*)
 *(.rel.tdata .rel.tdata.* .rel.gnu.linkonce.td.*)
 *(.rela.tdata .rela.tdata.* .rela.gnu.linkonce.td.*)
 *(.rel.tbss .rel.tbss.* .rel.gnu.linkonce.tb.*)
 *(.rela.tbss .rela.tbss.* .rela.gnu.linkonce.tb.*)
 *(.rel.ctors)
 *(.rela.ctors)
 *(.rel.dtors)
 *(.rela.dtors)
 *(.rel.got)
 *(.rela.got)
 *(.rel.sdata .rel.sdata.* .rel.gnu.linkonce.s.*)
 *(.rela.sdata .rela.sdata.* .rela.gnu.linkonce.s.*)
 *(.rel.sbss .rel.sbss.* .rel.gnu.linkonce.sb.*)
 *(.rela.sbss .rela.sbss.* .rela.gnu.linkonce.sb.*)
 *(.rel.sdata2 .rel.sdata2.* .rel.gnu.linkonce.s2.*)
 *(.rela.sdata2 .rela.sdata2.* .rela.gnu.linkonce.s2.*)
 *(.rel.sbss2 .rel.sbss2.* .rel.gnu.linkonce.sb2.*)
 *(.rela.sbss2 .rela.sbss2.* .rela.gnu.linkonce.sb2.*)
 *(.rel.bss .rel.bss.* .rel.gnu.linkonce.b.*)
 *(.rela.bss .rela.bss.* .rela.gnu.linkonce.b.*)
 *(.rel.plt)
 *(.rela.plt)
 *(.rel.dyn)
 *(.init)
 *(.plt)
 *(.text .stub .text.* .gnu.linkonce.t.*)
 .text          0x0000000008000244       0x4c ../recorder_nios_bsp//obj/HAL/src/crt0.o
                0x0000000008000244                _start
 .text          0x0000000008000290        0x0 obj/default/LCD/font/arial18.o
 .text          0x0000000008000290        0x0 obj/default/LCD/font/arial22.o
 .text          0x0000000008000290        0x0 obj/default/LCD/font/arial40.o
 .text          0x0000000008000290       0xb0 obj/default/LCD/Color.o
                0x0000000008000290                Color::Color()
                0x0000000008000290                Color::Color()
                0x00000000080002c0                Color::~Color()
                0x00000000080002c0                Color::~Color()
                0x0000000008000308                Color::~Color()
 .text          0x0000000008000340      0x268 obj/default/LCD/lcd_core.o
                0x0000000008000448                LCD::init()
                0x0000000008000474                LCD::clear()
                0x0000000008000480                LCD::rgb2color(unsigned char, unsigned char, unsigned char)
                0x00000000080004a4                LCD::render(char, int, int)
                0x00000000080004c4                LCD::test()
                0x0000000008000520                LCD::renders(char const*, int, int)
 .text          0x00000000080005a8      0x258 obj/default/audio/audio_core.o
                0x00000000080005cc                Audio::init()
                0x0000000008000600                Audio::rspace()
                0x0000000008000634                Audio::wspace()
                0x0000000008000720                Audio::read()
 .text._ZN5Audio8buf_pushEj
                0x0000000008000800       0x64 obj/default/audio/audio_core.o
                0x0000000008000800                Audio::buf_push(unsigned int)
 .text._ZSt3maxIiERKT_S2_S2_
                0x0000000008000864       0x44 obj/default/audio/audio_core.o
                0x0000000008000864                int const& std::max<int>(int const&, int const&)
 .text          0x00000000080008a8       0x44 obj/default/main.o
                0x00000000080008a8                task1(void*)
                0x00000000080008cc                task2(void*)
 .text.startup  0x00000000080008ec       0xc4 obj/default/main.o
                0x00000000080008ec                main
 .text          0x00000000080009b0        0x0 /home/alpha/altera/15.1/nios2eds/bin/gnu/H-x86_64-pc-linux-gnu/bin/../lib/gcc/nios2-elf/4.9.2/../../../../../H-x86_64-pc-linux-gnu/nios2-elf/lib/libstdc++.a(class_type_info.o)
 .text._ZNK10__cxxabiv117__class_type_info11__do_upcastEPKS0_PPv
                0x00000000080009b0       0x78 /home/alpha/altera/15.1/nios2eds/bin/gnu/H-x86_64-pc-linux-gnu/bin/../lib/gcc/nios2-elf/4.9.2/../../../../../H-x86_64-pc-linux-gnu/nios2-elf/lib/libstdc++.a(class_type_info.o)
                0x00000000080009b0                __cxxabiv1::__class_type_info::__do_upcast(__cxxabiv1::__class_type_info const*, void**) const
 .text._ZNK10__cxxabiv117__class_type_info20__do_find_public_srcEiPKvPKS0_S2_
                0x0000000008000a28       0x18 /home/alpha/altera/15.1/nios2eds/bin/gnu/H-x86_64-pc-linux-gnu/bin/../lib/gcc/nios2-elf/4.9.2/../../../../../H-x86_64-pc-linux-gnu/nios2-elf/lib/libstdc++.a(class_type_info.o)
                0x0000000008000a28                __cxxabiv1::__class_type_info::__do_find_public_src(int, void const*, __cxxabiv1::__class_type_info const*, void const*) const
 .text._ZN10__cxxabiv117__class_type_infoD2Ev
                0x0000000008000a40       0x10 /home/alpha/altera/15.1/nios2eds/bin/gnu/H-x86_64-pc-linux-gnu/bin/../lib/gcc/nios2-elf/4.9.2/../../../../../H-x86_64-pc-linux-gnu/nios2-elf/lib/libstdc++.a(class_type_info.o)
                0x0000000008000a40                __cxxabiv1::__class_type_info::~__class_type_info()
                0x0000000008000a40                __cxxabiv1::__class_type_info::~__class_type_info()
 .text._ZN10__cxxabiv117__class_type_infoD0Ev
                0x0000000008000a50       0x34 /home/alpha/altera/15.1/nios2eds/bin/gnu/H-x86_64-pc-linux-gnu/bin/../lib/gcc/nios2-elf/4.9.2/../../../../../H-x86_64-pc-linux-gnu/nios2-elf/lib/libstdc++.a(class_type_info.o)
                0x0000000008000a50                __cxxabiv1::__class_type_info::~__class_type_info()
 .text._ZNK10__cxxabiv117__class_type_info11__do_upcastEPKS0_PKvRNS0_15__upcast_resultE
                0x0000000008000a84       0x6c /home/alpha/altera/15.1/nios2eds/bin/gnu/H-x86_64-pc-linux-gnu/bin/../lib/gcc/nios2-elf/4.9.2/../../../../../H-x86_64-pc-linux-gnu/nios2-elf/lib/libstdc++.a(class_type_info.o)
                0x0000000008000a84                __cxxabiv1::__class_type_info::__do_upcast(__cxxabiv1::__class_type_info const*, void const*, __cxxabiv1::__class_type_info::__upcast_result&) const
 .text._ZNK10__cxxabiv117__class_type_info10__do_catchEPKSt9type_infoPPvj
                0x0000000008000af0       0xb8 /home/alpha/altera/15.1/nios2eds/bin/gnu/H-x86_64-pc-linux-gnu/bin/../lib/gcc/nios2-elf/4.9.2/../../../../../H-x86_64-pc-linux-gnu/nios2-elf/lib/libstdc++.a(class_type_info.o)
                0x0000000008000af0                __cxxabiv1::__class_type_info::__do_catch(std::type_info const*, void**, unsigned int) const
 .text._ZNK10__cxxabiv117__class_type_info12__do_dyncastEiNS0_10__sub_kindEPKS0_PKvS3_S5_RNS0_16__dyncast_resultE
                0x0000000008000ba8       0xd0 /home/alpha/altera/15.1/nios2eds/bin/gnu/H-x86_64-pc-linux-gnu/bin/../lib/gcc/nios2-elf/4.9.2/../../../../../H-x86_64-pc-linux-gnu/nios2-elf/lib/libstdc++.a(class_type_info.o)
                0x0000000008000ba8                __cxxabiv1::__class_type_info::__do_dyncast(int, __cxxabiv1::__class_type_info::__sub_kind, __cxxabiv1::__class_type_info const*, void const*, __cxxabiv1::__class_type_info const*, void const*, __cxxabiv1::__class_type_info::__dyncast_result&) const
 .text          0x0000000008000c78        0x0 /home/alpha/altera/15.1/nios2eds/bin/gnu/H-x86_64-pc-linux-gnu/bin/../lib/gcc/nios2-elf/4.9.2/../../../../../H-x86_64-pc-linux-gnu/nios2-elf/lib/libstdc++.a(del_op.o)
 .text._ZdlPv   0x0000000008000c78        0x4 /home/alpha/altera/15.1/nios2eds/bin/gnu/H-x86_64-pc-linux-gnu/bin/../lib/gcc/nios2-elf/4.9.2/../../../../../H-x86_64-pc-linux-gnu/nios2-elf/lib/libstdc++.a(del_op.o)
                0x0000000008000c78                operator delete(void*)
 .text          0x0000000008000c7c        0x0 /home/alpha/altera/15.1/nios2eds/bin/gnu/H-x86_64-pc-linux-gnu/bin/../lib/gcc/nios2-elf/4.9.2/../../../../../H-x86_64-pc-linux-gnu/nios2-elf/lib/libstdc++.a(si_class_type_info.o)
 .text._ZN10__cxxabiv120__si_class_type_infoD2Ev
                0x0000000008000c7c       0x10 /home/alpha/altera/15.1/nios2eds/bin/gnu/H-x86_64-pc-linux-gnu/bin/../lib/gcc/nios2-elf/4.9.2/../../../../../H-x86_64-pc-linux-gnu/nios2-elf/lib/libstdc++.a(si_class_type_info.o)
                0x0000000008000c7c                __cxxabiv1::__si_class_type_info::~__si_class_type_info()
                0x0000000008000c7c                __cxxabiv1::__si_class_type_info::~__si_class_type_info()
 .text._ZN10__cxxabiv120__si_class_type_infoD0Ev
                0x0000000008000c8c       0x34 /home/alpha/altera/15.1/nios2eds/bin/gnu/H-x86_64-pc-linux-gnu/bin/../lib/gcc/nios2-elf/4.9.2/../../../../../H-x86_64-pc-linux-gnu/nios2-elf/lib/libstdc++.a(si_class_type_info.o)
                0x0000000008000c8c                __cxxabiv1::__si_class_type_info::~__si_class_type_info()
 .text._ZNK10__cxxabiv120__si_class_type_info12__do_dyncastEiNS_17__class_type_info10__sub_kindEPKS1_PKvS4_S6_RNS1_16__dyncast_resultE
                0x0000000008000cc0      0x160 /home/alpha/altera/15.1/nios2eds/bin/gnu/H-x86_64-pc-linux-gnu/bin/../lib/gcc/nios2-elf/4.9.2/../../../../../H-x86_64-pc-linux-gnu/nios2-elf/lib/libstdc++.a(si_class_type_info.o)
                0x0000000008000cc0                __cxxabiv1::__si_class_type_info::__do_dyncast(int, __cxxabiv1::__class_type_info::__sub_kind, __cxxabiv1::__class_type_info const*, void const*, __cxxabiv1::__class_type_info const*, void const*, __cxxabiv1::__class_type_info::__dyncast_result&) const
 .text._ZNK10__cxxabiv120__si_class_type_info20__do_find_public_srcEiPKvPKNS_17__class_type_infoES2_
                0x0000000008000e20       0x9c /home/alpha/altera/15.1/nios2eds/bin/gnu/H-x86_64-pc-linux-gnu/bin/../lib/gcc/nios2-elf/4.9.2/../../../../../H-x86_64-pc-linux-gnu/nios2-elf/lib/libstdc++.a(si_class_type_info.o)
                0x0000000008000e20                __cxxabiv1::__si_class_type_info::__do_find_public_src(int, void const*, __cxxabiv1::__class_type_info const*, void const*) const
 .text._ZNK10__cxxabiv120__si_class_type_info11__do_upcastEPKNS_17__class_type_infoEPKvRNS1_15__upcast_resultE
                0x0000000008000ebc       0x84 /home/alpha/altera/15.1/nios2eds/bin/gnu/H-x86_64-pc-linux-gnu/bin/../lib/gcc/nios2-elf/4.9.2/../../../../../H-x86_64-pc-linux-gnu/nios2-elf/lib/libstdc++.a(si_class_type_info.o)
                0x0000000008000ebc                __cxxabiv1::__si_class_type_info::__do_upcast(__cxxabiv1::__class_type_info const*, void const*, __cxxabiv1::__class_type_info::__upcast_result&) const
 .text          0x0000000008000f40        0x0 /home/alpha/altera/15.1/nios2eds/bin/gnu/H-x86_64-pc-linux-gnu/bin/../lib/gcc/nios2-elf/4.9.2/../../../../../H-x86_64-pc-linux-gnu/nios2-elf/lib/libstdc++.a(tinfo.o)
 .text._ZNSt9type_infoD2Ev
                0x0000000008000f40        0x4 /home/alpha/altera/15.1/nios2eds/bin/gnu/H-x86_64-pc-linux-gnu/bin/../lib/gcc/nios2-elf/4.9.2/../../../../../H-x86_64-pc-linux-gnu/nios2-elf/lib/libstdc++.a(tinfo.o)
                0x0000000008000f40                std::type_info::~type_info()
                0x0000000008000f40                std::type_info::~type_info()
 .text._ZNKSt9type_info14__is_pointer_pEv
                0x0000000008000f44        0x8 /home/alpha/altera/15.1/nios2eds/bin/gnu/H-x86_64-pc-linux-gnu/bin/../lib/gcc/nios2-elf/4.9.2/../../../../../H-x86_64-pc-linux-gnu/nios2-elf/lib/libstdc++.a(tinfo.o)
                0x0000000008000f44                std::type_info::__is_pointer_p() const
 .text._ZNKSt9type_info15__is_function_pEv
                0x0000000008000f4c        0x8 /home/alpha/altera/15.1/nios2eds/bin/gnu/H-x86_64-pc-linux-gnu/bin/../lib/gcc/nios2-elf/4.9.2/../../../../../H-x86_64-pc-linux-gnu/nios2-elf/lib/libstdc++.a(tinfo.o)
                0x0000000008000f4c                std::type_info::__is_function_p() const
 .text._ZNKSt9type_info11__do_upcastEPKN10__cxxabiv117__class_type_infoEPPv
                0x0000000008000f54        0x8 /home/alpha/altera/15.1/nios2eds/bin/gnu/H-x86_64-pc-linux-gnu/bin/../lib/gcc/nios2-elf/4.9.2/../../../../../H-x86_64-pc-linux-gnu/nios2-elf/lib/libstdc++.a(tinfo.o)
                0x0000000008000f54                std::type_info::__do_upcast(__cxxabiv1::__class_type_info const*, void**) const
 .text._ZNSt9type_infoD0Ev
                0x0000000008000f5c        0x4 /home/alpha/altera/15.1/nios2eds/bin/gnu/H-x86_64-pc-linux-gnu/bin/../lib/gcc/nios2-elf/4.9.2/../../../../../H-x86_64-pc-linux-gnu/nios2-elf/lib/libstdc++.a(tinfo.o)
                0x0000000008000f5c                std::type_info::~type_info()
 .text._ZNKSt9type_info10__do_catchEPKS_PPvj
                0x0000000008000f60       0x44 /home/alpha/altera/15.1/nios2eds/bin/gnu/H-x86_64-pc-linux-gnu/bin/../lib/gcc/nios2-elf/4.9.2/../../../../../H-x86_64-pc-linux-gnu/nios2-elf/lib/libstdc++.a(tinfo.o)
                0x0000000008000f60                std::type_info::__do_catch(std::type_info const*, void**, unsigned int) const
 .text          0x0000000008000fa4        0x0 /home/alpha/altera/15.1/nios2eds/bin/gnu/H-x86_64-pc-linux-gnu/bin/../lib/gcc/nios2-elf/4.9.2/../../../../../H-x86_64-pc-linux-gnu/nios2-elf/lib/libc.a(lib_a-malloc.o)
 .text.malloc   0x0000000008000fa4       0x14 /home/alpha/altera/15.1/nios2eds/bin/gnu/H-x86_64-pc-linux-gnu/bin/../lib/gcc/nios2-elf/4.9.2/../../../../../H-x86_64-pc-linux-gnu/nios2-elf/lib/libc.a(lib_a-malloc.o)
                0x0000000008000fa4                malloc
 .text.free     0x0000000008000fb8       0x14 /home/alpha/altera/15.1/nios2eds/bin/gnu/H-x86_64-pc-linux-gnu/bin/../lib/gcc/nios2-elf/4.9.2/../../../../../H-x86_64-pc-linux-gnu/nios2-elf/lib/libc.a(lib_a-malloc.o)
                0x0000000008000fb8                free
 .text          0x0000000008000fcc        0x0 /home/alpha/altera/15.1/nios2eds/bin/gnu/H-x86_64-pc-linux-gnu/bin/../lib/gcc/nios2-elf/4.9.2/../../../../../H-x86_64-pc-linux-gnu/nios2-elf/lib/libc.a(lib_a-mallocr.o)
 .text._malloc_r
                0x0000000008000fcc      0x7a8 /home/alpha/altera/15.1/nios2eds/bin/gnu/H-x86_64-pc-linux-gnu/bin/../lib/gcc/nios2-elf/4.9.2/../../../../../H-x86_64-pc-linux-gnu/nios2-elf/lib/libc.a(lib_a-mallocr.o)
                0x0000000008000fcc                _malloc_r
 .text          0x0000000008001774        0x0 /home/alpha/altera/15.1/nios2eds/bin/gnu/H-x86_64-pc-linux-gnu/bin/../lib/gcc/nios2-elf/4.9.2/../../../../../H-x86_64-pc-linux-gnu/nios2-elf/lib/libc.a(lib_a-puts.o)
 .text._puts_r  0x0000000008001774       0xa8 /home/alpha/altera/15.1/nios2eds/bin/gnu/H-x86_64-pc-linux-gnu/bin/../lib/gcc/nios2-elf/4.9.2/../../../../../H-x86_64-pc-linux-gnu/nios2-elf/lib/libc.a(lib_a-puts.o)
                0x0000000008001774                _puts_r
 .text.puts     0x000000000800181c       0x14 /home/alpha/altera/15.1/nios2eds/bin/gnu/H-x86_64-pc-linux-gnu/bin/../lib/gcc/nios2-elf/4.9.2/../../../../../H-x86_64-pc-linux-gnu/nios2-elf/lib/libc.a(lib_a-puts.o)
                0x000000000800181c                puts
 .text          0x0000000008001830        0x0 /home/alpha/altera/15.1/nios2eds/bin/gnu/H-x86_64-pc-linux-gnu/bin/../lib/gcc/nios2-elf/4.9.2/../../../../../H-x86_64-pc-linux-gnu/nios2-elf/lib/libc.a(lib_a-sbrkr.o)
 .text._sbrk_r  0x0000000008001830       0x54 /home/alpha/altera/15.1/nios2eds/bin/gnu/H-x86_64-pc-linux-gnu/bin/../lib/gcc/nios2-elf/4.9.2/../../../../../H-x86_64-pc-linux-gnu/nios2-elf/lib/libc.a(lib_a-sbrkr.o)
                0x0000000008001830                _sbrk_r
 .text          0x0000000008001884        0x0 /home/alpha/altera/15.1/nios2eds/bin/gnu/H-x86_64-pc-linux-gnu/bin/../lib/gcc/nios2-elf/4.9.2/../../../../../H-x86_64-pc-linux-gnu/nios2-elf/lib/libc.a(lib_a-strcmp.o)
 .text.strcmp   0x0000000008001884       0xa4 /home/alpha/altera/15.1/nios2eds/bin/gnu/H-x86_64-pc-linux-gnu/bin/../lib/gcc/nios2-elf/4.9.2/../../../../../H-x86_64-pc-linux-gnu/nios2-elf/lib/libc.a(lib_a-strcmp.o)
                0x0000000008001884                strcmp
 .text          0x0000000008001928        0x0 /home/alpha/altera/15.1/nios2eds/bin/gnu/H-x86_64-pc-linux-gnu/bin/../lib/gcc/nios2-elf/4.9.2/../../../../../H-x86_64-pc-linux-gnu/nios2-elf/lib/libc.a(lib_a-strlen.o)
 .text.strlen   0x0000000008001928       0x98 /home/alpha/altera/15.1/nios2eds/bin/gnu/H-x86_64-pc-linux-gnu/bin/../lib/gcc/nios2-elf/4.9.2/../../../../../H-x86_64-pc-linux-gnu/nios2-elf/lib/libc.a(lib_a-strlen.o)
                0x0000000008001928                strlen
 .text          0x00000000080019c0        0x0 /home/alpha/altera/15.1/nios2eds/bin/gnu/H-x86_64-pc-linux-gnu/bin/../lib/gcc/nios2-elf/4.9.2/../../../../../H-x86_64-pc-linux-gnu/nios2-elf/lib/libc.a(lib_a-freer.o)
 .text._malloc_trim_r
                0x00000000080019c0      0x124 /home/alpha/altera/15.1/nios2eds/bin/gnu/H-x86_64-pc-linux-gnu/bin/../lib/gcc/nios2-elf/4.9.2/../../../../../H-x86_64-pc-linux-gnu/nios2-elf/lib/libc.a(lib_a-freer.o)
                0x00000000080019c0                _malloc_trim_r
 .text._free_r  0x0000000008001ae4      0x2f0 /home/alpha/altera/15.1/nios2eds/bin/gnu/H-x86_64-pc-linux-gnu/bin/../lib/gcc/nios2-elf/4.9.2/../../../../../H-x86_64-pc-linux-gnu/nios2-elf/lib/libc.a(lib_a-freer.o)
                0x0000000008001ae4                _free_r
 .text          0x0000000008001dd4        0x0 /home/alpha/altera/15.1/nios2eds/bin/gnu/H-x86_64-pc-linux-gnu/bin/../lib/gcc/nios2-elf/4.9.2/../../../../../H-x86_64-pc-linux-gnu/nios2-elf/lib/libc.a(lib_a-fvwrite.o)
 .text.__sfvwrite_r
                0x0000000008001dd4      0x4c0 /home/alpha/altera/15.1/nios2eds/bin/gnu/H-x86_64-pc-linux-gnu/bin/../lib/gcc/nios2-elf/4.9.2/../../../../../H-x86_64-pc-linux-gnu/nios2-elf/lib/libc.a(lib_a-fvwrite.o)
                0x0000000008001dd4                __sfvwrite_r
 .text          0x0000000008002294        0x0 /home/alpha/altera/15.1/nios2eds/bin/gnu/H-x86_64-pc-linux-gnu/bin/../lib/gcc/nios2-elf/4.9.2/../../../../../H-x86_64-pc-linux-gnu/nios2-elf/lib/libc.a(lib_a-impure.o)
 .text          0x0000000008002294        0x0 /home/alpha/altera/15.1/nios2eds/bin/gnu/H-x86_64-pc-linux-gnu/bin/../lib/gcc/nios2-elf/4.9.2/../../../../../H-x86_64-pc-linux-gnu/nios2-elf/lib/libc.a(lib_a-int_errno.o)
 .text          0x0000000008002294        0x0 /home/alpha/altera/15.1/nios2eds/bin/gnu/H-x86_64-pc-linux-gnu/bin/../lib/gcc/nios2-elf/4.9.2/../../../../../H-x86_64-pc-linux-gnu/nios2-elf/lib/libc.a(lib_a-memchr.o)
 .text.memchr   0x0000000008002294       0xe8 /home/alpha/altera/15.1/nios2eds/bin/gnu/H-x86_64-pc-linux-gnu/bin/../lib/gcc/nios2-elf/4.9.2/../../../../../H-x86_64-pc-linux-gnu/nios2-elf/lib/libc.a(lib_a-memchr.o)
                0x0000000008002294                memchr
 .text          0x000000000800237c        0x0 /home/alpha/altera/15.1/nios2eds/bin/gnu/H-x86_64-pc-linux-gnu/bin/../lib/gcc/nios2-elf/4.9.2/../../../../../H-x86_64-pc-linux-gnu/nios2-elf/lib/libc.a(lib_a-memcpy.o)
 .text.memcpy   0x000000000800237c      0x138 /home/alpha/altera/15.1/nios2eds/bin/gnu/H-x86_64-pc-linux-gnu/bin/../lib/gcc/nios2-elf/4.9.2/../../../../../H-x86_64-pc-linux-gnu/nios2-elf/lib/libc.a(lib_a-memcpy.o)
                0x000000000800237c                memcpy
 .text          0x00000000080024b4        0x0 /home/alpha/altera/15.1/nios2eds/bin/gnu/H-x86_64-pc-linux-gnu/bin/../lib/gcc/nios2-elf/4.9.2/../../../../../H-x86_64-pc-linux-gnu/nios2-elf/lib/libc.a(lib_a-memmove.o)
 .text.memmove  0x00000000080024b4      0x15c /home/alpha/altera/15.1/nios2eds/bin/gnu/H-x86_64-pc-linux-gnu/bin/../lib/gcc/nios2-elf/4.9.2/../../../../../H-x86_64-pc-linux-gnu/nios2-elf/lib/libc.a(lib_a-memmove.o)
                0x00000000080024b4                memmove
 .text          0x0000000008002610        0x0 /home/alpha/altera/15.1/nios2eds/bin/gnu/H-x86_64-pc-linux-gnu/bin/../lib/gcc/nios2-elf/4.9.2/../../../../../H-x86_64-pc-linux-gnu/nios2-elf/lib/libc.a(lib_a-reallocr.o)
 .text._realloc_r
                0x0000000008002610      0x568 /home/alpha/altera/15.1/nios2eds/bin/gnu/H-x86_64-pc-linux-gnu/bin/../lib/gcc/nios2-elf/4.9.2/../../../../../H-x86_64-pc-linux-gnu/nios2-elf/lib/libc.a(lib_a-reallocr.o)
                0x0000000008002610                _realloc_r
 .text          0x0000000008002b78        0x0 /home/alpha/altera/15.1/nios2eds/bin/gnu/H-x86_64-pc-linux-gnu/bin/../lib/gcc/nios2-elf/4.9.2/../../../../../H-x86_64-pc-linux-gnu/nios2-elf/lib/libc.a(lib_a-wsetup.o)
 .text.__swsetup_r
                0x0000000008002b78      0x154 /home/alpha/altera/15.1/nios2eds/bin/gnu/H-x86_64-pc-linux-gnu/bin/../lib/gcc/nios2-elf/4.9.2/../../../../../H-x86_64-pc-linux-gnu/nios2-elf/lib/libc.a(lib_a-wsetup.o)
                0x0000000008002b78                __swsetup_r
 .text          0x0000000008002ccc        0x0 /home/alpha/altera/15.1/nios2eds/bin/gnu/H-x86_64-pc-linux-gnu/bin/../lib/gcc/nios2-elf/4.9.2/../../../../../H-x86_64-pc-linux-gnu/nios2-elf/lib/libc.a(lib_a-fflush.o)
 .text.__sflush_r
                0x0000000008002ccc      0x208 /home/alpha/altera/15.1/nios2eds/bin/gnu/H-x86_64-pc-linux-gnu/bin/../lib/gcc/nios2-elf/4.9.2/../../../../../H-x86_64-pc-linux-gnu/nios2-elf/lib/libc.a(lib_a-fflush.o)
                0x0000000008002ccc                __sflush_r
 .text._fflush_r
                0x0000000008002ed4       0x5c /home/alpha/altera/15.1/nios2eds/bin/gnu/H-x86_64-pc-linux-gnu/bin/../lib/gcc/nios2-elf/4.9.2/../../../../../H-x86_64-pc-linux-gnu/nios2-elf/lib/libc.a(lib_a-fflush.o)
                0x0000000008002ed4                _fflush_r
 .text.fflush   0x0000000008002f30       0x30 /home/alpha/altera/15.1/nios2eds/bin/gnu/H-x86_64-pc-linux-gnu/bin/../lib/gcc/nios2-elf/4.9.2/../../../../../H-x86_64-pc-linux-gnu/nios2-elf/lib/libc.a(lib_a-fflush.o)
                0x0000000008002f30                fflush
 .text          0x0000000008002f60        0x0 /home/alpha/altera/15.1/nios2eds/bin/gnu/H-x86_64-pc-linux-gnu/bin/../lib/gcc/nios2-elf/4.9.2/../../../../../H-x86_64-pc-linux-gnu/nios2-elf/lib/libc.a(lib_a-findfp.o)
 .text.__fp_lock
                0x0000000008002f60        0x8 /home/alpha/altera/15.1/nios2eds/bin/gnu/H-x86_64-pc-linux-gnu/bin/../lib/gcc/nios2-elf/4.9.2/../../../../../H-x86_64-pc-linux-gnu/nios2-elf/lib/libc.a(lib_a-findfp.o)
 .text.__fp_unlock
                0x0000000008002f68        0x8 /home/alpha/altera/15.1/nios2eds/bin/gnu/H-x86_64-pc-linux-gnu/bin/../lib/gcc/nios2-elf/4.9.2/../../../../../H-x86_64-pc-linux-gnu/nios2-elf/lib/libc.a(lib_a-findfp.o)
 .text._cleanup_r
                0x0000000008002f70        0xc /home/alpha/altera/15.1/nios2eds/bin/gnu/H-x86_64-pc-linux-gnu/bin/../lib/gcc/nios2-elf/4.9.2/../../../../../H-x86_64-pc-linux-gnu/nios2-elf/lib/libc.a(lib_a-findfp.o)
                0x0000000008002f70                _cleanup_r
 .text.__sinit.part.1
                0x0000000008002f7c      0x19c /home/alpha/altera/15.1/nios2eds/bin/gnu/H-x86_64-pc-linux-gnu/bin/../lib/gcc/nios2-elf/4.9.2/../../../../../H-x86_64-pc-linux-gnu/nios2-elf/lib/libc.a(lib_a-findfp.o)
 .text.__sfmoreglue
                0x0000000008003118       0x68 /home/alpha/altera/15.1/nios2eds/bin/gnu/H-x86_64-pc-linux-gnu/bin/../lib/gcc/nios2-elf/4.9.2/../../../../../H-x86_64-pc-linux-gnu/nios2-elf/lib/libc.a(lib_a-findfp.o)
                0x0000000008003118                __sfmoreglue
 .text.__sfp    0x0000000008003180      0x118 /home/alpha/altera/15.1/nios2eds/bin/gnu/H-x86_64-pc-linux-gnu/bin/../lib/gcc/nios2-elf/4.9.2/../../../../../H-x86_64-pc-linux-gnu/nios2-elf/lib/libc.a(lib_a-findfp.o)
                0x0000000008003180                __sfp
 .text._cleanup
                0x0000000008003298       0x18 /home/alpha/altera/15.1/nios2eds/bin/gnu/H-x86_64-pc-linux-gnu/bin/../lib/gcc/nios2-elf/4.9.2/../../../../../H-x86_64-pc-linux-gnu/nios2-elf/lib/libc.a(lib_a-findfp.o)
                0x0000000008003298                _cleanup
 .text.__sinit  0x00000000080032b0       0x10 /home/alpha/altera/15.1/nios2eds/bin/gnu/H-x86_64-pc-linux-gnu/bin/../lib/gcc/nios2-elf/4.9.2/../../../../../H-x86_64-pc-linux-gnu/nios2-elf/lib/libc.a(lib_a-findfp.o)
                0x00000000080032b0                __sinit
 .text.__sfp_lock_acquire
                0x00000000080032c0        0x4 /home/alpha/altera/15.1/nios2eds/bin/gnu/H-x86_64-pc-linux-gnu/bin/../lib/gcc/nios2-elf/4.9.2/../../../../../H-x86_64-pc-linux-gnu/nios2-elf/lib/libc.a(lib_a-findfp.o)
                0x00000000080032c0                __sfp_lock_acquire
 .text.__sfp_lock_release
                0x00000000080032c4        0x4 /home/alpha/altera/15.1/nios2eds/bin/gnu/H-x86_64-pc-linux-gnu/bin/../lib/gcc/nios2-elf/4.9.2/../../../../../H-x86_64-pc-linux-gnu/nios2-elf/lib/libc.a(lib_a-findfp.o)
                0x00000000080032c4                __sfp_lock_release
 .text.__sinit_lock_acquire
                0x00000000080032c8        0x4 /home/alpha/altera/15.1/nios2eds/bin/gnu/H-x86_64-pc-linux-gnu/bin/../lib/gcc/nios2-elf/4.9.2/../../../../../H-x86_64-pc-linux-gnu/nios2-elf/lib/libc.a(lib_a-findfp.o)
                0x00000000080032c8                __sinit_lock_acquire
 .text.__sinit_lock_release
                0x00000000080032cc        0x4 /home/alpha/altera/15.1/nios2eds/bin/gnu/H-x86_64-pc-linux-gnu/bin/../lib/gcc/nios2-elf/4.9.2/../../../../../H-x86_64-pc-linux-gnu/nios2-elf/lib/libc.a(lib_a-findfp.o)
                0x00000000080032cc                __sinit_lock_release
 .text.__fp_lock_all
                0x00000000080032d0       0x18 /home/alpha/altera/15.1/nios2eds/bin/gnu/H-x86_64-pc-linux-gnu/bin/../lib/gcc/nios2-elf/4.9.2/../../../../../H-x86_64-pc-linux-gnu/nios2-elf/lib/libc.a(lib_a-findfp.o)
                0x00000000080032d0                __fp_lock_all
 .text.__fp_unlock_all
                0x00000000080032e8       0x18 /home/alpha/altera/15.1/nios2eds/bin/gnu/H-x86_64-pc-linux-gnu/bin/../lib/gcc/nios2-elf/4.9.2/../../../../../H-x86_64-pc-linux-gnu/nios2-elf/lib/libc.a(lib_a-findfp.o)
                0x00000000080032e8                __fp_unlock_all
 .text          0x0000000008003300        0x0 /home/alpha/altera/15.1/nios2eds/bin/gnu/H-x86_64-pc-linux-gnu/bin/../lib/gcc/nios2-elf/4.9.2/../../../../../H-x86_64-pc-linux-gnu/nios2-elf/lib/libc.a(lib_a-fwalk.o)
 .text._fwalk   0x0000000008003300       0xc4 /home/alpha/altera/15.1/nios2eds/bin/gnu/H-x86_64-pc-linux-gnu/bin/../lib/gcc/nios2-elf/4.9.2/../../../../../H-x86_64-pc-linux-gnu/nios2-elf/lib/libc.a(lib_a-fwalk.o)
                0x0000000008003300                _fwalk
 .text._fwalk_reent
                0x00000000080033c4       0xc4 /home/alpha/altera/15.1/nios2eds/bin/gnu/H-x86_64-pc-linux-gnu/bin/../lib/gcc/nios2-elf/4.9.2/../../../../../H-x86_64-pc-linux-gnu/nios2-elf/lib/libc.a(lib_a-fwalk.o)
                0x00000000080033c4                _fwalk_reent
 .text          0x0000000008003488        0x0 /home/alpha/altera/15.1/nios2eds/bin/gnu/H-x86_64-pc-linux-gnu/bin/../lib/gcc/nios2-elf/4.9.2/../../../../../H-x86_64-pc-linux-gnu/nios2-elf/lib/libc.a(lib_a-makebuf.o)
 .text.__smakebuf_r
                0x0000000008003488      0x1b8 /home/alpha/altera/15.1/nios2eds/bin/gnu/H-x86_64-pc-linux-gnu/bin/../lib/gcc/nios2-elf/4.9.2/../../../../../H-x86_64-pc-linux-gnu/nios2-elf/lib/libc.a(lib_a-makebuf.o)
                0x0000000008003488                __smakebuf_r
 .text          0x0000000008003640        0x0 /home/alpha/altera/15.1/nios2eds/bin/gnu/H-x86_64-pc-linux-gnu/bin/../lib/gcc/nios2-elf/4.9.2/../../../../../H-x86_64-pc-linux-gnu/nios2-elf/lib/libc.a(lib_a-memset.o)
 .text.memset   0x0000000008003640      0x124 /home/alpha/altera/15.1/nios2eds/bin/gnu/H-x86_64-pc-linux-gnu/bin/../lib/gcc/nios2-elf/4.9.2/../../../../../H-x86_64-pc-linux-gnu/nios2-elf/lib/libc.a(lib_a-memset.o)
                0x0000000008003640                memset
 .text          0x0000000008003764        0x0 /home/alpha/altera/15.1/nios2eds/bin/gnu/H-x86_64-pc-linux-gnu/bin/../lib/gcc/nios2-elf/4.9.2/../../../../../H-x86_64-pc-linux-gnu/nios2-elf/lib/libc.a(lib_a-stdio.o)
 .text.__sread  0x0000000008003764       0x54 /home/alpha/altera/15.1/nios2eds/bin/gnu/H-x86_64-pc-linux-gnu/bin/../lib/gcc/nios2-elf/4.9.2/../../../../../H-x86_64-pc-linux-gnu/nios2-elf/lib/libc.a(lib_a-stdio.o)
                0x0000000008003764                __sread
 .text.__seofread
                0x00000000080037b8        0x8 /home/alpha/altera/15.1/nios2eds/bin/gnu/H-x86_64-pc-linux-gnu/bin/../lib/gcc/nios2-elf/4.9.2/../../../../../H-x86_64-pc-linux-gnu/nios2-elf/lib/libc.a(lib_a-stdio.o)
                0x00000000080037b8                __seofread
 .text.__swrite
                0x00000000080037c0       0x7c /home/alpha/altera/15.1/nios2eds/bin/gnu/H-x86_64-pc-linux-gnu/bin/../lib/gcc/nios2-elf/4.9.2/../../../../../H-x86_64-pc-linux-gnu/nios2-elf/lib/libc.a(lib_a-stdio.o)
                0x00000000080037c0                __swrite
 .text.__sseek  0x000000000800383c       0x5c /home/alpha/altera/15.1/nios2eds/bin/gnu/H-x86_64-pc-linux-gnu/bin/../lib/gcc/nios2-elf/4.9.2/../../../../../H-x86_64-pc-linux-gnu/nios2-elf/lib/libc.a(lib_a-stdio.o)
                0x000000000800383c                __sseek
 .text.__sclose
                0x0000000008003898        0x8 /home/alpha/altera/15.1/nios2eds/bin/gnu/H-x86_64-pc-linux-gnu/bin/../lib/gcc/nios2-elf/4.9.2/../../../../../H-x86_64-pc-linux-gnu/nios2-elf/lib/libc.a(lib_a-stdio.o)
                0x0000000008003898                __sclose
 .text          0x00000000080038a0        0x0 /home/alpha/altera/15.1/nios2eds/bin/gnu/H-x86_64-pc-linux-gnu/bin/../lib/gcc/nios2-elf/4.9.2/../../../../../H-x86_64-pc-linux-gnu/nios2-elf/lib/libc.a(lib_a-writer.o)
 .text._write_r
                0x00000000080038a0       0x5c /home/alpha/altera/15.1/nios2eds/bin/gnu/H-x86_64-pc-linux-gnu/bin/../lib/gcc/nios2-elf/4.9.2/../../../../../H-x86_64-pc-linux-gnu/nios2-elf/lib/libc.a(lib_a-writer.o)
                0x00000000080038a0                _write_r
 .text          0x00000000080038fc        0x0 /home/alpha/altera/15.1/nios2eds/bin/gnu/H-x86_64-pc-linux-gnu/bin/../lib/gcc/nios2-elf/4.9.2/../../../../../H-x86_64-pc-linux-gnu/nios2-elf/lib/libc.a(closer.o)
 .text._close_r
                0x00000000080038fc       0x54 /home/alpha/altera/15.1/nios2eds/bin/gnu/H-x86_64-pc-linux-gnu/bin/../lib/gcc/nios2-elf/4.9.2/../../../../../H-x86_64-pc-linux-gnu/nios2-elf/lib/libc.a(closer.o)
                0x00000000080038fc                _close_r
 .text          0x0000000008003950        0x0 /home/alpha/altera/15.1/nios2eds/bin/gnu/H-x86_64-pc-linux-gnu/bin/../lib/gcc/nios2-elf/4.9.2/../../../../../H-x86_64-pc-linux-gnu/nios2-elf/lib/libc.a(lib_a-fclose.o)
 .text._fclose_r
                0x0000000008003950       0xf0 /home/alpha/altera/15.1/nios2eds/bin/gnu/H-x86_64-pc-linux-gnu/bin/../lib/gcc/nios2-elf/4.9.2/../../../../../H-x86_64-pc-linux-gnu/nios2-elf/lib/libc.a(lib_a-fclose.o)
                0x0000000008003950                _fclose_r
 .text.fclose   0x0000000008003a40       0x14 /home/alpha/altera/15.1/nios2eds/bin/gnu/H-x86_64-pc-linux-gnu/bin/../lib/gcc/nios2-elf/4.9.2/../../../../../H-x86_64-pc-linux-gnu/nios2-elf/lib/libc.a(lib_a-fclose.o)
                0x0000000008003a40                fclose
 .text          0x0000000008003a54        0x0 /home/alpha/altera/15.1/nios2eds/bin/gnu/H-x86_64-pc-linux-gnu/bin/../lib/gcc/nios2-elf/4.9.2/../../../../../H-x86_64-pc-linux-gnu/nios2-elf/lib/libc.a(lib_a-fstatr.o)
 .text._fstat_r
                0x0000000008003a54       0x58 /home/alpha/altera/15.1/nios2eds/bin/gnu/H-x86_64-pc-linux-gnu/bin/../lib/gcc/nios2-elf/4.9.2/../../../../../H-x86_64-pc-linux-gnu/nios2-elf/lib/libc.a(lib_a-fstatr.o)
                0x0000000008003a54                _fstat_r
 .text          0x0000000008003aac        0x0 /home/alpha/altera/15.1/nios2eds/bin/gnu/H-x86_64-pc-linux-gnu/bin/../lib/gcc/nios2-elf/4.9.2/../../../../../H-x86_64-pc-linux-gnu/nios2-elf/lib/libc.a(lib_a-isattyr.o)
 .text._isatty_r
                0x0000000008003aac       0x54 /home/alpha/altera/15.1/nios2eds/bin/gnu/H-x86_64-pc-linux-gnu/bin/../lib/gcc/nios2-elf/4.9.2/../../../../../H-x86_64-pc-linux-gnu/nios2-elf/lib/libc.a(lib_a-isattyr.o)
                0x0000000008003aac                _isatty_r
 .text          0x0000000008003b00        0x0 /home/alpha/altera/15.1/nios2eds/bin/gnu/H-x86_64-pc-linux-gnu/bin/../lib/gcc/nios2-elf/4.9.2/../../../../../H-x86_64-pc-linux-gnu/nios2-elf/lib/libc.a(lib_a-lseekr.o)
 .text._lseek_r
                0x0000000008003b00       0x5c /home/alpha/altera/15.1/nios2eds/bin/gnu/H-x86_64-pc-linux-gnu/bin/../lib/gcc/nios2-elf/4.9.2/../../../../../H-x86_64-pc-linux-gnu/nios2-elf/lib/libc.a(lib_a-lseekr.o)
                0x0000000008003b00                _lseek_r
 .text          0x0000000008003b5c        0x0 /home/alpha/altera/15.1/nios2eds/bin/gnu/H-x86_64-pc-linux-gnu/bin/../lib/gcc/nios2-elf/4.9.2/../../../../../H-x86_64-pc-linux-gnu/nios2-elf/lib/libc.a(lib_a-readr.o)
 .text._read_r  0x0000000008003b5c       0x5c /home/alpha/altera/15.1/nios2eds/bin/gnu/H-x86_64-pc-linux-gnu/bin/../lib/gcc/nios2-elf/4.9.2/../../../../../H-x86_64-pc-linux-gnu/nios2-elf/lib/libc.a(lib_a-readr.o)
                0x0000000008003b5c                _read_r
 .text          0x0000000008003bb8      0x12c /home/alpha/altera/15.1/nios2eds/bin/gnu/H-x86_64-pc-linux-gnu/bin/../lib/gcc/nios2-elf/4.9.2/libgcc.a(lib2-divmod.o)
                0x0000000008003c24                __divsi3
                0x0000000008003c78                __modsi3
                0x0000000008003cd4                __udivsi3
                0x0000000008003cdc                __umodsi3
 .text          0x0000000008003ce4      0x120 ../recorder_nios_bsp//libucosii_bsp.a(alt_close.o)
                0x0000000008003d34                close
 .text          0x0000000008003e04       0x2c ../recorder_nios_bsp//libucosii_bsp.a(alt_dev.o)
 .text          0x0000000008003e30        0x0 ../recorder_nios_bsp//libucosii_bsp.a(alt_errno.o)
 .text          0x0000000008003e30      0x100 ../recorder_nios_bsp//libucosii_bsp.a(alt_fstat.o)
                0x0000000008003e80                fstat
 .text          0x0000000008003f30       0xf4 ../recorder_nios_bsp//libucosii_bsp.a(alt_isatty.o)
                0x0000000008003f80                isatty
 .text          0x0000000008004024       0xe4 ../recorder_nios_bsp//libucosii_bsp.a(alt_load.o)
                0x0000000008004088                alt_load
 .text          0x0000000008004108      0x124 ../recorder_nios_bsp//libucosii_bsp.a(alt_lseek.o)
                0x0000000008004158                lseek
 .text          0x000000000800422c       0xd4 ../recorder_nios_bsp//libucosii_bsp.a(alt_main.o)
                0x000000000800422c                alt_main
 .text          0x0000000008004300      0x14c ../recorder_nios_bsp//libucosii_bsp.a(alt_read.o)
                0x0000000008004350                read
 .text          0x000000000800444c       0x60 ../recorder_nios_bsp//libucosii_bsp.a(alt_release_fd.o)
                0x000000000800444c                alt_release_fd
 .text          0x00000000080044ac       0xb0 ../recorder_nios_bsp//libucosii_bsp.a(alt_sbrk.o)
                0x00000000080044ac                sbrk
 .text          0x000000000800455c      0x148 ../recorder_nios_bsp//libucosii_bsp.a(alt_write.o)
                0x00000000080045ac                write
 .text          0x00000000080046a4      0x11c ../recorder_nios_bsp//libucosii_bsp.a(alt_env_lock.o)
                0x00000000080046a4                __env_lock
                0x0000000008004764                __env_unlock
 .text          0x00000000080047c0      0x1f0 ../recorder_nios_bsp//libucosii_bsp.a(alt_malloc_lock.o)
                0x00000000080047c0                __malloc_lock
                0x00000000080048e0                __malloc_unlock
 .text          0x00000000080049b0     0x1fe0 ../recorder_nios_bsp//libucosii_bsp.a(os_core.o)
                0x00000000080049b0                OSEventNameGet
                0x0000000008004ad0                OSEventNameSet
                0x0000000008004c0c                OSEventPendMulti
                0x000000000800521c                OSInit
                0x0000000008005270                OSIntEnter
                0x00000000080052ec                OSIntExit
                0x00000000080053e0                OSSchedLock
                0x0000000008005468                OSSchedUnlock
                0x0000000008005540                OSStart
                0x00000000080055ac                OSStatInit
                0x0000000008005658                OSTimeTick
                0x0000000008005874                OSVersion
                0x0000000008005894                OS_Dummy
                0x00000000080058b0                OS_EventTaskRdy
                0x0000000008005a48                OS_EventTaskWait
                0x0000000008005b54                OS_EventTaskWaitMulti
                0x0000000008005ca0                OS_EventTaskRemove
                0x0000000008005d54                OS_EventTaskRemoveMulti
                0x0000000008005e50                OS_EventWaitListInit
                0x0000000008006214                OS_MemClr
                0x0000000008006264                OS_MemCopy
                0x00000000080062c8                OS_Sched
                0x0000000008006404                OS_StrCopy
                0x0000000008006478                OS_StrLen
                0x00000000080064cc                OS_TaskIdle
                0x0000000008006528                OS_TaskStat
                0x00000000080065f4                OS_TaskStatStkChk
                0x00000000080066bc                OS_TCBInit
 .text          0x0000000008006990      0x18c ../recorder_nios_bsp//libucosii_bsp.a(os_dbg.o)
                0x0000000008006990                OSDebugInit
 .text          0x0000000008006b1c     0x181c ../recorder_nios_bsp//libucosii_bsp.a(os_flag.o)
                0x0000000008006b1c                OSFlagAccept
                0x0000000008006e24                OSFlagCreate
                0x0000000008006f4c                OSFlagDel
                0x00000000080071bc                OSFlagNameGet
                0x00000000080072ec                OSFlagNameSet
                0x000000000800743c                OSFlagPend
                0x0000000008007a2c                OSFlagPendGetFlagsRdy
                0x0000000008007a94                OSFlagPost
                0x0000000008007e1c                OSFlagQuery
                0x00000000080080a4                OS_FlagInit
                0x0000000008008298                OS_FlagUnlink
 .text          0x0000000008008338      0x784 ../recorder_nios_bsp//libucosii_bsp.a(os_mem.o)
                0x0000000008008338                OSMemCreate
                0x000000000800852c                OSMemGet
                0x000000000800861c                OSMemNameGet
                0x0000000008008714                OSMemNameSet
                0x000000000800882c                OSMemPut
                0x0000000008008904                OSMemQuery
                0x00000000080089ec                OS_MemInit
 .text          0x0000000008008abc     0x1210 ../recorder_nios_bsp//libucosii_bsp.a(os_q.o)
                0x0000000008008abc                OSQAccept
                0x0000000008008bfc                OSQCreate
                0x0000000008008df8                OSQDel
                0x00000000080090c0                OSQFlush
                0x0000000008009178                OSQPend
                0x0000000008009474                OSQPendAbort
                0x00000000080095e0                OSQPost
                0x0000000008009748                OSQPostFront
                0x00000000080098b8                OSQPostOpt
                0x0000000008009ac4                OSQQuery
                0x0000000008009c20                OS_QInit
 .text          0x0000000008009ccc      0xb08 ../recorder_nios_bsp//libucosii_bsp.a(os_sem.o)
                0x0000000008009ccc                OSSemAccept
                0x0000000008009d7c                OSSemCreate
                0x0000000008009e7c                OSSemDel
                0x000000000800a0e4                OSSemPend
                0x000000000800a34c                OSSemPendAbort
                0x000000000800a4b8                OSSemPost
                0x000000000800a5c8                OSSemQuery
                0x000000000800a6d8                OSSemSet
 .text          0x000000000800a7d4     0x18f4 ../recorder_nios_bsp//libucosii_bsp.a(os_task.o)
                0x000000000800a7d4                OSTaskChangePrio
                0x000000000800ad14                OSTaskCreate
                0x000000000800aed0                OSTaskCreateExt
                0x000000000800b0bc                OSTaskDel
                0x000000000800b49c                OSTaskDelReq
                0x000000000800b5f4                OSTaskNameGet
                0x000000000800b79c                OSTaskNameSet
                0x000000000800b95c                OSTaskResume
                0x000000000800bb54                OSTaskStkChk
                0x000000000800bd1c                OSTaskSuspend
                0x000000000800bf30                OSTaskQuery
                0x000000000800c05c                OS_TaskStkClr
 .text          0x000000000800c0c8      0x55c ../recorder_nios_bsp//libucosii_bsp.a(os_time.o)
                0x000000000800c0c8                OSTimeDly
                0x000000000800c210                OSTimeDlyHMSM
                0x000000000800c36c                OSTimeDlyResume
                0x000000000800c55c                OSTimeGet
                0x000000000800c5c0                OSTimeSet
 .text          0x000000000800c624      0x2c4 ../recorder_nios_bsp//libucosii_bsp.a(alt_sys_init.o)
                0x000000000800c65c                alt_irq_init
                0x000000000800c690                alt_sys_init
 .text          0x000000000800c8e8      0x164 ../recorder_nios_bsp//libucosii_bsp.a(altera_avalon_jtag_uart_fd.o)
                0x000000000800c8e8                altera_avalon_jtag_uart_read_fd
                0x000000000800c948                altera_avalon_jtag_uart_write_fd
                0x000000000800c9a8                altera_avalon_jtag_uart_close_fd
                0x000000000800c9f8                altera_avalon_jtag_uart_ioctl_fd
 .text          0x000000000800ca4c      0x560 ../recorder_nios_bsp//libucosii_bsp.a(altera_avalon_jtag_uart_init.o)
                0x000000000800ca4c                altera_avalon_jtag_uart_init
                0x000000000800cf44                altera_avalon_jtag_uart_close
 .text          0x000000000800cfac       0xec ../recorder_nios_bsp//libucosii_bsp.a(altera_avalon_jtag_uart_ioctl.o)
                0x000000000800cfac                altera_avalon_jtag_uart_ioctl
 .text          0x000000000800d098      0x2b4 ../recorder_nios_bsp//libucosii_bsp.a(altera_avalon_jtag_uart_read.o)
                0x000000000800d098                altera_avalon_jtag_uart_read
 .text          0x000000000800d34c      0x2c0 ../recorder_nios_bsp//libucosii_bsp.a(altera_avalon_jtag_uart_write.o)
                0x000000000800d34c                altera_avalon_jtag_uart_write
 .text          0x000000000800d60c       0xf8 ../recorder_nios_bsp//libucosii_bsp.a(altera_avalon_timer_sc.o)
                0x000000000800d684                alt_avalon_timer_sc_init
 .text          0x000000000800d704      0x794 ../recorder_nios_bsp//libucosii_bsp.a(altera_up_avalon_audio.o)
                0x000000000800d704                alt_up_audio_open_dev
                0x000000000800d744                alt_up_audio_enable_read_interrupt
                0x000000000800d794                alt_up_audio_disable_read_interrupt
                0x000000000800d7e8                alt_up_audio_enable_write_interrupt
                0x000000000800d838                alt_up_audio_disable_write_interrupt
                0x000000000800d88c                alt_up_audio_read_interrupt_pending
                0x000000000800d8cc                alt_up_audio_write_interrupt_pending
                0x000000000800d90c                alt_up_audio_reset_audio_core
                0x000000000800d99c                alt_up_audio_read_fifo_avail
                0x000000000800d9fc                alt_up_audio_record_r
                0x000000000800da64                alt_up_audio_record_l
                0x000000000800dacc                alt_up_audio_write_fifo_space
                0x000000000800db2c                alt_up_audio_play_r
                0x000000000800db94                alt_up_audio_play_l
                0x000000000800dbfc                alt_up_audio_read_fifo
                0x000000000800dcdc                alt_up_audio_write_fifo
                0x000000000800dde4                alt_up_audio_read_fifo_head
                0x000000000800de34                alt_up_audio_write_fifo_head
 .text          0x000000000800de98      0xed0 ../recorder_nios_bsp//libucosii_bsp.a(altera_up_avalon_video_pixel_buffer_dma.o)
                0x000000000800de98                alt_up_pixel_buffer_dma_open_dev
                0x000000000800ded8                alt_up_pixel_buffer_dma_draw
                0x000000000800e06c                alt_up_pixel_buffer_dma_change_back_buffer_address
                0x000000000800e0c8                alt_up_pixel_buffer_dma_swap_buffers
                0x000000000800e128                alt_up_pixel_buffer_dma_check_swap_buffers_status
                0x000000000800e15c                alt_up_pixel_buffer_dma_clear_screen
                0x000000000800e284                alt_up_pixel_buffer_dma_draw_box
                0x000000000800e56c                alt_up_pixel_buffer_dma_draw_hline
                0x000000000800e780                alt_up_pixel_buffer_dma_draw_vline
                0x000000000800e9d8                alt_up_pixel_buffer_dma_draw_rectangle
                0x000000000800ea9c                helper_plot_pixel
                0x000000000800eb1c                alt_up_pixel_buffer_dma_draw_line
 .text          0x000000000800ed68      0x140 ../recorder_nios_bsp//libucosii_bsp.a(alt_alarm_start.o)
                0x000000000800ed68                alt_alarm_start
 .text          0x000000000800eea8       0x44 ../recorder_nios_bsp//libucosii_bsp.a(alt_dcache_flush_all.o)
                0x000000000800eea8                alt_dcache_flush_all
 .text          0x000000000800eeec       0xf4 ../recorder_nios_bsp//libucosii_bsp.a(alt_dev_llist_insert.o)
                0x000000000800ef3c                alt_dev_llist_insert
 .text          0x000000000800efe0       0x5c ../recorder_nios_bsp//libucosii_bsp.a(alt_do_ctors.o)
                0x000000000800efe0                _do_ctors
 .text          0x000000000800f03c       0x5c ../recorder_nios_bsp//libucosii_bsp.a(alt_do_dtors.o)
                0x000000000800f03c                _do_dtors
 .text          0x000000000800f098       0x90 ../recorder_nios_bsp//libucosii_bsp.a(alt_find_dev.o)
                0x000000000800f098                alt_find_dev
 .text          0x000000000800f128       0x30 ../recorder_nios_bsp//libucosii_bsp.a(alt_icache_flush_all.o)
                0x000000000800f128                alt_icache_flush_all
 .text          0x000000000800f158      0x138 ../recorder_nios_bsp//libucosii_bsp.a(alt_io_redirect.o)
                0x000000000800f218                alt_io_redirect
 .text          0x000000000800f290      0x1b0 ../recorder_nios_bsp//libucosii_bsp.a(alt_irq_register.o)
                0x000000000800f290                alt_irq_register
 .text          0x000000000800f440        0x0 ../recorder_nios_bsp//libucosii_bsp.a(alt_irq_vars.o)
 .text          0x000000000800f440      0x274 ../recorder_nios_bsp//libucosii_bsp.a(alt_open.o)
                0x000000000800f55c                open
 .text          0x000000000800f6b4      0x19c ../recorder_nios_bsp//libucosii_bsp.a(alt_tick.o)
                0x000000000800f6b4                alt_alarm_stop
                0x000000000800f74c                alt_tick
 .text          0x000000000800f850       0x20 ../recorder_nios_bsp//libucosii_bsp.a(altera_nios2_gen2_irq.o)
                0x000000000800f850                altera_nios2_gen2_irq_init
 .text          0x000000000800f870       0xd0 ../recorder_nios_bsp//libucosii_bsp.a(os_cpu_a.o)
                0x000000000800f870                OSCtxSw
                0x000000000800f870                OSIntCtxSw
                0x000000000800f8fc                OSStartHighRdy
                0x000000000800f91c                OSStartTsk
 .text          0x000000000800f940      0x264 ../recorder_nios_bsp//libucosii_bsp.a(os_cpu_c.o)
                0x000000000800f940                OSTaskStkInit
                0x000000000800fa9c                OSTaskCreateHook
                0x000000000800fabc                OSTaskDelHook
                0x000000000800fadc                OSTaskSwHook
                0x000000000800faf8                OSTaskStatHook
                0x000000000800fb14                OSTimeTickHook
                0x000000000800fb30                OSInitHookBegin
                0x000000000800fb4c                OSInitHookEnd
                0x000000000800fb68                OSTaskIdleHook
                0x000000000800fb84                OSTCBInitHook
 .text          0x000000000800fba4      0x114 ../recorder_nios_bsp//libucosii_bsp.a(alt_find_file.o)
                0x000000000800fba4                alt_find_file
 .text          0x000000000800fcb8       0xfc ../recorder_nios_bsp//libucosii_bsp.a(alt_get_fd.o)
                0x000000000800fcb8                alt_get_fd
 .text          0x000000000800fdb4       0x8c ../recorder_nios_bsp//libucosii_bsp.a(alt_icache_flush.o)
                0x000000000800fdb4                alt_icache_flush
 .text          0x000000000800fe40        0x0 ../recorder_nios_bsp//libucosii_bsp.a(alt_irq_entry.o)
 .text          0x000000000800fe40        0x0 ../recorder_nios_bsp//libucosii_bsp.a(alt_irq_handler.o)
 .text          0x000000000800fe40        0x0 ../recorder_nios_bsp//libucosii_bsp.a(alt_exception_entry.o)
 .text          0x000000000800fe40       0x9c ../recorder_nios_bsp//libucosii_bsp.a(alt_instruction_exception_entry.o)
                0x000000000800fe40                alt_exception_cause_generated_bad_addr
 .text          0x000000000800fedc        0x0 /home/alpha/altera/15.1/nios2eds/bin/gnu/H-x86_64-pc-linux-gnu/bin/../lib/gcc/nios2-elf/4.9.2/../../../../../H-x86_64-pc-linux-gnu/nios2-elf/lib/libc.a(lib_a-atexit.o)
 .text.atexit   0x000000000800fedc       0x14 /home/alpha/altera/15.1/nios2eds/bin/gnu/H-x86_64-pc-linux-gnu/bin/../lib/gcc/nios2-elf/4.9.2/../../../../../H-x86_64-pc-linux-gnu/nios2-elf/lib/libc.a(lib_a-atexit.o)
                0x000000000800fedc                atexit
 .text          0x000000000800fef0        0x0 /home/alpha/altera/15.1/nios2eds/bin/gnu/H-x86_64-pc-linux-gnu/bin/../lib/gcc/nios2-elf/4.9.2/../../../../../H-x86_64-pc-linux-gnu/nios2-elf/lib/libc.a(lib_a-exit.o)
 .text.exit     0x000000000800fef0       0x38 /home/alpha/altera/15.1/nios2eds/bin/gnu/H-x86_64-pc-linux-gnu/bin/../lib/gcc/nios2-elf/4.9.2/../../../../../H-x86_64-pc-linux-gnu/nios2-elf/lib/libc.a(lib_a-exit.o)
                0x000000000800fef0                exit
 .text          0x000000000800ff28        0x0 /home/alpha/altera/15.1/nios2eds/bin/gnu/H-x86_64-pc-linux-gnu/bin/../lib/gcc/nios2-elf/4.9.2/../../../../../H-x86_64-pc-linux-gnu/nios2-elf/lib/libc.a(lib_a-memcmp.o)
 .text.memcmp   0x000000000800ff28       0x7c /home/alpha/altera/15.1/nios2eds/bin/gnu/H-x86_64-pc-linux-gnu/bin/../lib/gcc/nios2-elf/4.9.2/../../../../../H-x86_64-pc-linux-gnu/nios2-elf/lib/libc.a(lib_a-memcmp.o)
                0x000000000800ff28                memcmp
 .text          0x000000000800ffa4        0x0 /home/alpha/altera/15.1/nios2eds/bin/gnu/H-x86_64-pc-linux-gnu/bin/../lib/gcc/nios2-elf/4.9.2/../../../../../H-x86_64-pc-linux-gnu/nios2-elf/lib/libc.a(lib_a-__atexit.o)
 .text.__register_exitproc
                0x000000000800ffa4      0x114 /home/alpha/altera/15.1/nios2eds/bin/gnu/H-x86_64-pc-linux-gnu/bin/../lib/gcc/nios2-elf/4.9.2/../../../../../H-x86_64-pc-linux-gnu/nios2-elf/lib/libc.a(lib_a-__atexit.o)
                0x000000000800ffa4                __register_exitproc
 .text          0x00000000080100b8        0x0 /home/alpha/altera/15.1/nios2eds/bin/gnu/H-x86_64-pc-linux-gnu/bin/../lib/gcc/nios2-elf/4.9.2/../../../../../H-x86_64-pc-linux-gnu/nios2-elf/lib/libc.a(lib_a-__call_atexit.o)
 .text.__call_exitprocs
                0x00000000080100b8      0x194 /home/alpha/altera/15.1/nios2eds/bin/gnu/H-x86_64-pc-linux-gnu/bin/../lib/gcc/nios2-elf/4.9.2/../../../../../H-x86_64-pc-linux-gnu/nios2-elf/lib/libc.a(lib_a-__call_atexit.o)
                0x00000000080100b8                __call_exitprocs
 .text          0x000000000801024c       0x3c ../recorder_nios_bsp//libucosii_bsp.a(alt_exit.o)
                0x000000000801024c                _exit
 *(.gnu.warning.*)
 *(.fini)
                0x0000000008010288                PROVIDE (__etext, ABSOLUTE (.))
                0x0000000008010288                PROVIDE (_etext, ABSOLUTE (.))
                0x0000000008010288                PROVIDE (etext, ABSOLUTE (.))
 *(.eh_frame_hdr)
                0x0000000008010288                . = ALIGN (0x4)
                0x0000000008010288                PROVIDE (__preinit_array_start, ABSOLUTE (.))
 *(.preinit_array)
                0x0000000008010288                PROVIDE (__preinit_array_end, ABSOLUTE (.))
                0x0000000008010288                PROVIDE (__init_array_start, ABSOLUTE (.))
 *(.init_array)
                0x0000000008010288                PROVIDE (__init_array_end, ABSOLUTE (.))
                0x0000000008010288                PROVIDE (__fini_array_start, ABSOLUTE (.))
 *(.fini_array)
                0x0000000008010288                PROVIDE (__fini_array_end, ABSOLUTE (.))
 *(.eh_frame)
 *(.gcc_except_table .gcc_except_table.*)
 *(.dynamic)
                0x0000000008010288                PROVIDE (__CTOR_LIST__, ABSOLUTE (.))
 *(.ctors)
 *(SORT(.ctors.*))
                0x0000000008010288                PROVIDE (__CTOR_END__, ABSOLUTE (.))
                0x0000000008010288                PROVIDE (__DTOR_LIST__, ABSOLUTE (.))
 *(.dtors)
 *(SORT(.dtors.*))
                0x0000000008010288                PROVIDE (__DTOR_END__, ABSOLUTE (.))
 *(.jcr)
                0x0000000008010288                . = ALIGN (0x4)

.rodata         0x0000000008010288      0x2f8
                0x0000000008010288                PROVIDE (__ram_rodata_start, ABSOLUTE (.))
                0x0000000008010288                . = ALIGN (0x4)
 *(.rodata .rodata.* .gnu.linkonce.r.*)
 .rodata._ZTV5Color
                0x0000000008010288       0x10 obj/default/LCD/Color.o
                0x0000000008010288                vtable for Color
 .rodata.str1.4
                0x0000000008010298       0x1c obj/default/LCD/lcd_core.o
 .rodata        0x00000000080102b4        0xc obj/default/audio/audio_core.o
 .rodata.str1.4
                0x00000000080102c0       0x37 obj/default/main.o
                                         0x38 (size before relaxing)
 *fill*         0x00000000080102f7        0x1 
 .rodata._ZTSN10__cxxabiv117__class_type_infoE
                0x00000000080102f8       0x24 /home/alpha/altera/15.1/nios2eds/bin/gnu/H-x86_64-pc-linux-gnu/bin/../lib/gcc/nios2-elf/4.9.2/../../../../../H-x86_64-pc-linux-gnu/nios2-elf/lib/libstdc++.a(class_type_info.o)
                0x00000000080102f8                typeinfo name for __cxxabiv1::__class_type_info
 .rodata._ZTIN10__cxxabiv117__class_type_infoE
                0x000000000801031c        0xc /home/alpha/altera/15.1/nios2eds/bin/gnu/H-x86_64-pc-linux-gnu/bin/../lib/gcc/nios2-elf/4.9.2/../../../../../H-x86_64-pc-linux-gnu/nios2-elf/lib/libstdc++.a(class_type_info.o)
                0x000000000801031c                typeinfo for __cxxabiv1::__class_type_info
 .rodata._ZTVN10__cxxabiv117__class_type_infoE
                0x0000000008010328       0x2c /home/alpha/altera/15.1/nios2eds/bin/gnu/H-x86_64-pc-linux-gnu/bin/../lib/gcc/nios2-elf/4.9.2/../../../../../H-x86_64-pc-linux-gnu/nios2-elf/lib/libstdc++.a(class_type_info.o)
                0x0000000008010328                vtable for __cxxabiv1::__class_type_info
 .rodata._ZTSN10__cxxabiv120__si_class_type_infoE
                0x0000000008010354       0x28 /home/alpha/altera/15.1/nios2eds/bin/gnu/H-x86_64-pc-linux-gnu/bin/../lib/gcc/nios2-elf/4.9.2/../../../../../H-x86_64-pc-linux-gnu/nios2-elf/lib/libstdc++.a(si_class_type_info.o)
                0x0000000008010354                typeinfo name for __cxxabiv1::__si_class_type_info
 .rodata._ZTIN10__cxxabiv120__si_class_type_infoE
                0x000000000801037c        0xc /home/alpha/altera/15.1/nios2eds/bin/gnu/H-x86_64-pc-linux-gnu/bin/../lib/gcc/nios2-elf/4.9.2/../../../../../H-x86_64-pc-linux-gnu/nios2-elf/lib/libstdc++.a(si_class_type_info.o)
                0x000000000801037c                typeinfo for __cxxabiv1::__si_class_type_info
 .rodata._ZTVN10__cxxabiv120__si_class_type_infoE
                0x0000000008010388       0x2c /home/alpha/altera/15.1/nios2eds/bin/gnu/H-x86_64-pc-linux-gnu/bin/../lib/gcc/nios2-elf/4.9.2/../../../../../H-x86_64-pc-linux-gnu/nios2-elf/lib/libstdc++.a(si_class_type_info.o)
                0x0000000008010388                vtable for __cxxabiv1::__si_class_type_info
 .rodata._ZTSSt9type_info
                0x00000000080103b4       0x10 /home/alpha/altera/15.1/nios2eds/bin/gnu/H-x86_64-pc-linux-gnu/bin/../lib/gcc/nios2-elf/4.9.2/../../../../../H-x86_64-pc-linux-gnu/nios2-elf/lib/libstdc++.a(tinfo.o)
                0x00000000080103b4                typeinfo name for std::type_info
 .rodata._ZTVSt9type_info
                0x00000000080103c4       0x20 /home/alpha/altera/15.1/nios2eds/bin/gnu/H-x86_64-pc-linux-gnu/bin/../lib/gcc/nios2-elf/4.9.2/../../../../../H-x86_64-pc-linux-gnu/nios2-elf/lib/libstdc++.a(tinfo.o)
                0x00000000080103c4                vtable for std::type_info
 .rodata.str1.4
                0x00000000080103e4        0x2 /home/alpha/altera/15.1/nios2eds/bin/gnu/H-x86_64-pc-linux-gnu/bin/../lib/gcc/nios2-elf/4.9.2/../../../../../H-x86_64-pc-linux-gnu/nios2-elf/lib/libc.a(lib_a-puts.o)
                                          0x4 (size before relaxing)
 *fill*         0x00000000080103e6        0x2 
 .rodata.str1.4
                0x00000000080103e8        0x4 /home/alpha/altera/15.1/nios2eds/bin/gnu/H-x86_64-pc-linux-gnu/bin/../lib/gcc/nios2-elf/4.9.2/../../../../../H-x86_64-pc-linux-gnu/nios2-elf/lib/libc.a(lib_a-impure.o)
 .rodata        0x00000000080103ec        0xc ../recorder_nios_bsp//libucosii_bsp.a(alt_dev.o)
 .rodata        0x00000000080103f8       0x10 ../recorder_nios_bsp//libucosii_bsp.a(alt_main.o)
 .rodata        0x0000000008010408      0x120 ../recorder_nios_bsp//libucosii_bsp.a(os_core.o)
                0x0000000008010408                OSUnMapTbl
 .rodata        0x0000000008010528       0x54 ../recorder_nios_bsp//libucosii_bsp.a(alt_sys_init.o)
 .rodata        0x000000000801057c        0x4 ../recorder_nios_bsp//libucosii_bsp.a(os_cpu_c.o)
 *(.rodata1)
                0x0000000008010580                . = ALIGN (0x4)
                0x0000000008010580                PROVIDE (__ram_rodata_end, ABSOLUTE (.))
                0x0000000008010288                PROVIDE (__flash_rodata_start, LOADADDR (.rodata))

.rwdata         0x0000000008010580     0xa670 load address 0x000000000801abf0
                0x0000000008010580                PROVIDE (__ram_rwdata_start, ABSOLUTE (.))
                0x0000000008010580                . = ALIGN (0x4)
 *(.got.plt)
 *(.got)
 *(.data1)
 *(.data .data.* .gnu.linkonce.d.*)
 .data          0x0000000008010580        0x0 ../recorder_nios_bsp//obj/HAL/src/crt0.o
 .data          0x0000000008010580     0x29f0 obj/default/LCD/font/arial18.o
                0x0000000008010580                arial18bm
                0x0000000008012800                arial18cnt
                0x0000000008012980                arial18pos
 .data          0x0000000008012f70     0x3e5c obj/default/LCD/font/arial22.o
                0x0000000008012f70                arial22bm
                0x00000000080164e0                arial22cnt
                0x0000000008016660                arial22pos
 .data          0x0000000008016dcc     0x225c obj/default/LCD/font/arial40.o
                0x0000000008016dcc                arial40bm
                0x00000000080188b8                arial40cnt
                0x0000000008018a38                arial40pos
 .data          0x0000000008019028        0x0 obj/default/LCD/Color.o
 .data          0x0000000008019028        0x0 obj/default/LCD/lcd_core.o
 .data          0x0000000008019028        0x0 obj/default/audio/audio_core.o
 .data          0x0000000008019028        0x0 obj/default/main.o
 .data          0x0000000008019028        0x0 /home/alpha/altera/15.1/nios2eds/bin/gnu/H-x86_64-pc-linux-gnu/bin/../lib/gcc/nios2-elf/4.9.2/../../../../../H-x86_64-pc-linux-gnu/nios2-elf/lib/libstdc++.a(class_type_info.o)
 .data          0x0000000008019028        0x0 /home/alpha/altera/15.1/nios2eds/bin/gnu/H-x86_64-pc-linux-gnu/bin/../lib/gcc/nios2-elf/4.9.2/../../../../../H-x86_64-pc-linux-gnu/nios2-elf/lib/libstdc++.a(del_op.o)
 .data          0x0000000008019028        0x0 /home/alpha/altera/15.1/nios2eds/bin/gnu/H-x86_64-pc-linux-gnu/bin/../lib/gcc/nios2-elf/4.9.2/../../../../../H-x86_64-pc-linux-gnu/nios2-elf/lib/libstdc++.a(si_class_type_info.o)
 .data          0x0000000008019028        0x0 /home/alpha/altera/15.1/nios2eds/bin/gnu/H-x86_64-pc-linux-gnu/bin/../lib/gcc/nios2-elf/4.9.2/../../../../../H-x86_64-pc-linux-gnu/nios2-elf/lib/libstdc++.a(tinfo.o)
 .data          0x0000000008019028        0x0 /home/alpha/altera/15.1/nios2eds/bin/gnu/H-x86_64-pc-linux-gnu/bin/../lib/gcc/nios2-elf/4.9.2/../../../../../H-x86_64-pc-linux-gnu/nios2-elf/lib/libc.a(lib_a-malloc.o)
 .data          0x0000000008019028        0x0 /home/alpha/altera/15.1/nios2eds/bin/gnu/H-x86_64-pc-linux-gnu/bin/../lib/gcc/nios2-elf/4.9.2/../../../../../H-x86_64-pc-linux-gnu/nios2-elf/lib/libc.a(lib_a-mallocr.o)
 .data.__malloc_av_
                0x0000000008019028      0x408 /home/alpha/altera/15.1/nios2eds/bin/gnu/H-x86_64-pc-linux-gnu/bin/../lib/gcc/nios2-elf/4.9.2/../../../../../H-x86_64-pc-linux-gnu/nios2-elf/lib/libc.a(lib_a-mallocr.o)
                0x0000000008019028                __malloc_av_
 .data          0x0000000008019430        0x0 /home/alpha/altera/15.1/nios2eds/bin/gnu/H-x86_64-pc-linux-gnu/bin/../lib/gcc/nios2-elf/4.9.2/../../../../../H-x86_64-pc-linux-gnu/nios2-elf/lib/libc.a(lib_a-puts.o)
 .data          0x0000000008019430        0x0 /home/alpha/altera/15.1/nios2eds/bin/gnu/H-x86_64-pc-linux-gnu/bin/../lib/gcc/nios2-elf/4.9.2/../../../../../H-x86_64-pc-linux-gnu/nios2-elf/lib/libc.a(lib_a-sbrkr.o)
 .data          0x0000000008019430        0x0 /home/alpha/altera/15.1/nios2eds/bin/gnu/H-x86_64-pc-linux-gnu/bin/../lib/gcc/nios2-elf/4.9.2/../../../../../H-x86_64-pc-linux-gnu/nios2-elf/lib/libc.a(lib_a-strcmp.o)
 .data          0x0000000008019430        0x0 /home/alpha/altera/15.1/nios2eds/bin/gnu/H-x86_64-pc-linux-gnu/bin/../lib/gcc/nios2-elf/4.9.2/../../../../../H-x86_64-pc-linux-gnu/nios2-elf/lib/libc.a(lib_a-strlen.o)
 .data          0x0000000008019430        0x0 /home/alpha/altera/15.1/nios2eds/bin/gnu/H-x86_64-pc-linux-gnu/bin/../lib/gcc/nios2-elf/4.9.2/../../../../../H-x86_64-pc-linux-gnu/nios2-elf/lib/libc.a(lib_a-freer.o)
 .data          0x0000000008019430        0x0 /home/alpha/altera/15.1/nios2eds/bin/gnu/H-x86_64-pc-linux-gnu/bin/../lib/gcc/nios2-elf/4.9.2/../../../../../H-x86_64-pc-linux-gnu/nios2-elf/lib/libc.a(lib_a-fvwrite.o)
 .data          0x0000000008019430        0x0 /home/alpha/altera/15.1/nios2eds/bin/gnu/H-x86_64-pc-linux-gnu/bin/../lib/gcc/nios2-elf/4.9.2/../../../../../H-x86_64-pc-linux-gnu/nios2-elf/lib/libc.a(lib_a-impure.o)
 .data.impure_data
                0x0000000008019430      0x424 /home/alpha/altera/15.1/nios2eds/bin/gnu/H-x86_64-pc-linux-gnu/bin/../lib/gcc/nios2-elf/4.9.2/../../../../../H-x86_64-pc-linux-gnu/nios2-elf/lib/libc.a(lib_a-impure.o)
 .data          0x0000000008019854        0x0 /home/alpha/altera/15.1/nios2eds/bin/gnu/H-x86_64-pc-linux-gnu/bin/../lib/gcc/nios2-elf/4.9.2/../../../../../H-x86_64-pc-linux-gnu/nios2-elf/lib/libc.a(lib_a-int_errno.o)
 .data          0x0000000008019854        0x0 /home/alpha/altera/15.1/nios2eds/bin/gnu/H-x86_64-pc-linux-gnu/bin/../lib/gcc/nios2-elf/4.9.2/../../../../../H-x86_64-pc-linux-gnu/nios2-elf/lib/libc.a(lib_a-memchr.o)
 .data          0x0000000008019854        0x0 /home/alpha/altera/15.1/nios2eds/bin/gnu/H-x86_64-pc-linux-gnu/bin/../lib/gcc/nios2-elf/4.9.2/../../../../../H-x86_64-pc-linux-gnu/nios2-elf/lib/libc.a(lib_a-memcpy.o)
 .data          0x0000000008019854        0x0 /home/alpha/altera/15.1/nios2eds/bin/gnu/H-x86_64-pc-linux-gnu/bin/../lib/gcc/nios2-elf/4.9.2/../../../../../H-x86_64-pc-linux-gnu/nios2-elf/lib/libc.a(lib_a-memmove.o)
 .data          0x0000000008019854        0x0 /home/alpha/altera/15.1/nios2eds/bin/gnu/H-x86_64-pc-linux-gnu/bin/../lib/gcc/nios2-elf/4.9.2/../../../../../H-x86_64-pc-linux-gnu/nios2-elf/lib/libc.a(lib_a-reallocr.o)
 .data          0x0000000008019854        0x0 /home/alpha/altera/15.1/nios2eds/bin/gnu/H-x86_64-pc-linux-gnu/bin/../lib/gcc/nios2-elf/4.9.2/../../../../../H-x86_64-pc-linux-gnu/nios2-elf/lib/libc.a(lib_a-wsetup.o)
 .data          0x0000000008019854        0x0 /home/alpha/altera/15.1/nios2eds/bin/gnu/H-x86_64-pc-linux-gnu/bin/../lib/gcc/nios2-elf/4.9.2/../../../../../H-x86_64-pc-linux-gnu/nios2-elf/lib/libc.a(lib_a-fflush.o)
 .data          0x0000000008019854        0x0 /home/alpha/altera/15.1/nios2eds/bin/gnu/H-x86_64-pc-linux-gnu/bin/../lib/gcc/nios2-elf/4.9.2/../../../../../H-x86_64-pc-linux-gnu/nios2-elf/lib/libc.a(lib_a-findfp.o)
 .data          0x0000000008019854        0x0 /home/alpha/altera/15.1/nios2eds/bin/gnu/H-x86_64-pc-linux-gnu/bin/../lib/gcc/nios2-elf/4.9.2/../../../../../H-x86_64-pc-linux-gnu/nios2-elf/lib/libc.a(lib_a-fwalk.o)
 .data          0x0000000008019854        0x0 /home/alpha/altera/15.1/nios2eds/bin/gnu/H-x86_64-pc-linux-gnu/bin/../lib/gcc/nios2-elf/4.9.2/../../../../../H-x86_64-pc-linux-gnu/nios2-elf/lib/libc.a(lib_a-makebuf.o)
 .data          0x0000000008019854        0x0 /home/alpha/altera/15.1/nios2eds/bin/gnu/H-x86_64-pc-linux-gnu/bin/../lib/gcc/nios2-elf/4.9.2/../../../../../H-x86_64-pc-linux-gnu/nios2-elf/lib/libc.a(lib_a-memset.o)
 .data          0x0000000008019854        0x0 /home/alpha/altera/15.1/nios2eds/bin/gnu/H-x86_64-pc-linux-gnu/bin/../lib/gcc/nios2-elf/4.9.2/../../../../../H-x86_64-pc-linux-gnu/nios2-elf/lib/libc.a(lib_a-stdio.o)
 .data          0x0000000008019854        0x0 /home/alpha/altera/15.1/nios2eds/bin/gnu/H-x86_64-pc-linux-gnu/bin/../lib/gcc/nios2-elf/4.9.2/../../../../../H-x86_64-pc-linux-gnu/nios2-elf/lib/libc.a(lib_a-writer.o)
 .data          0x0000000008019854        0x0 /home/alpha/altera/15.1/nios2eds/bin/gnu/H-x86_64-pc-linux-gnu/bin/../lib/gcc/nios2-elf/4.9.2/../../../../../H-x86_64-pc-linux-gnu/nios2-elf/lib/libc.a(closer.o)
 .data          0x0000000008019854        0x0 /home/alpha/altera/15.1/nios2eds/bin/gnu/H-x86_64-pc-linux-gnu/bin/../lib/gcc/nios2-elf/4.9.2/../../../../../H-x86_64-pc-linux-gnu/nios2-elf/lib/libc.a(lib_a-fclose.o)
 .data          0x0000000008019854        0x0 /home/alpha/altera/15.1/nios2eds/bin/gnu/H-x86_64-pc-linux-gnu/bin/../lib/gcc/nios2-elf/4.9.2/../../../../../H-x86_64-pc-linux-gnu/nios2-elf/lib/libc.a(lib_a-fstatr.o)
 .data          0x0000000008019854        0x0 /home/alpha/altera/15.1/nios2eds/bin/gnu/H-x86_64-pc-linux-gnu/bin/../lib/gcc/nios2-elf/4.9.2/../../../../../H-x86_64-pc-linux-gnu/nios2-elf/lib/libc.a(lib_a-isattyr.o)
 .data          0x0000000008019854        0x0 /home/alpha/altera/15.1/nios2eds/bin/gnu/H-x86_64-pc-linux-gnu/bin/../lib/gcc/nios2-elf/4.9.2/../../../../../H-x86_64-pc-linux-gnu/nios2-elf/lib/libc.a(lib_a-lseekr.o)
 .data          0x0000000008019854        0x0 /home/alpha/altera/15.1/nios2eds/bin/gnu/H-x86_64-pc-linux-gnu/bin/../lib/gcc/nios2-elf/4.9.2/../../../../../H-x86_64-pc-linux-gnu/nios2-elf/lib/libc.a(lib_a-readr.o)
 .data          0x0000000008019854        0x0 /home/alpha/altera/15.1/nios2eds/bin/gnu/H-x86_64-pc-linux-gnu/bin/../lib/gcc/nios2-elf/4.9.2/libgcc.a(lib2-divmod.o)
 .data          0x0000000008019854        0x0 ../recorder_nios_bsp//libucosii_bsp.a(alt_close.o)
 .data          0x0000000008019854      0x1a8 ../recorder_nios_bsp//libucosii_bsp.a(alt_dev.o)
                0x0000000008019854                alt_dev_null
                0x000000000801987c                alt_fd_list
 .data          0x00000000080199fc        0x0 ../recorder_nios_bsp//libucosii_bsp.a(alt_errno.o)
 .data          0x00000000080199fc        0x0 ../recorder_nios_bsp//libucosii_bsp.a(alt_fstat.o)
 .data          0x00000000080199fc        0x0 ../recorder_nios_bsp//libucosii_bsp.a(alt_isatty.o)
 .data          0x00000000080199fc        0x0 ../recorder_nios_bsp//libucosii_bsp.a(alt_load.o)
 .data          0x00000000080199fc        0x0 ../recorder_nios_bsp//libucosii_bsp.a(alt_lseek.o)
 .data          0x00000000080199fc        0x0 ../recorder_nios_bsp//libucosii_bsp.a(alt_main.o)
 .data          0x00000000080199fc        0x0 ../recorder_nios_bsp//libucosii_bsp.a(alt_read.o)
 .data          0x00000000080199fc        0x0 ../recorder_nios_bsp//libucosii_bsp.a(alt_release_fd.o)
 .data          0x00000000080199fc        0x0 ../recorder_nios_bsp//libucosii_bsp.a(alt_sbrk.o)
 .data          0x00000000080199fc        0x0 ../recorder_nios_bsp//libucosii_bsp.a(alt_write.o)
 .data          0x00000000080199fc        0x0 ../recorder_nios_bsp//libucosii_bsp.a(alt_env_lock.o)
 .data          0x00000000080199fc        0x0 ../recorder_nios_bsp//libucosii_bsp.a(alt_malloc_lock.o)
 .data          0x00000000080199fc        0x0 ../recorder_nios_bsp//libucosii_bsp.a(os_core.o)
 .data          0x00000000080199fc        0x0 ../recorder_nios_bsp//libucosii_bsp.a(os_dbg.o)
 .data          0x00000000080199fc        0x0 ../recorder_nios_bsp//libucosii_bsp.a(os_flag.o)
 .data          0x00000000080199fc        0x0 ../recorder_nios_bsp//libucosii_bsp.a(os_mem.o)
 .data          0x00000000080199fc        0x0 ../recorder_nios_bsp//libucosii_bsp.a(os_q.o)
 .data          0x00000000080199fc        0x0 ../recorder_nios_bsp//libucosii_bsp.a(os_sem.o)
 .data          0x00000000080199fc        0x0 ../recorder_nios_bsp//libucosii_bsp.a(os_task.o)
 .data          0x00000000080199fc        0x0 ../recorder_nios_bsp//libucosii_bsp.a(os_time.o)
 .data          0x00000000080199fc     0x1120 ../recorder_nios_bsp//libucosii_bsp.a(alt_sys_init.o)
 .data          0x000000000801ab1c        0x0 ../recorder_nios_bsp//libucosii_bsp.a(altera_avalon_jtag_uart_fd.o)
 .data          0x000000000801ab1c        0x0 ../recorder_nios_bsp//libucosii_bsp.a(altera_avalon_jtag_uart_init.o)
 .data          0x000000000801ab1c        0x0 ../recorder_nios_bsp//libucosii_bsp.a(altera_avalon_jtag_uart_ioctl.o)
 .data          0x000000000801ab1c        0x0 ../recorder_nios_bsp//libucosii_bsp.a(altera_avalon_jtag_uart_read.o)
 .data          0x000000000801ab1c        0x0 ../recorder_nios_bsp//libucosii_bsp.a(altera_avalon_jtag_uart_write.o)
 .data          0x000000000801ab1c        0x0 ../recorder_nios_bsp//libucosii_bsp.a(altera_avalon_timer_sc.o)
 .data          0x000000000801ab1c        0x0 ../recorder_nios_bsp//libucosii_bsp.a(altera_up_avalon_audio.o)
 .data          0x000000000801ab1c        0x0 ../recorder_nios_bsp//libucosii_bsp.a(altera_up_avalon_video_pixel_buffer_dma.o)
 .data          0x000000000801ab1c        0x0 ../recorder_nios_bsp//libucosii_bsp.a(alt_alarm_start.o)
 .data          0x000000000801ab1c        0x0 ../recorder_nios_bsp//libucosii_bsp.a(alt_dcache_flush_all.o)
 .data          0x000000000801ab1c        0x0 ../recorder_nios_bsp//libucosii_bsp.a(alt_dev_llist_insert.o)
 .data          0x000000000801ab1c        0x0 ../recorder_nios_bsp//libucosii_bsp.a(alt_do_ctors.o)
 .data          0x000000000801ab1c        0x0 ../recorder_nios_bsp//libucosii_bsp.a(alt_do_dtors.o)
 .data          0x000000000801ab1c        0x0 ../recorder_nios_bsp//libucosii_bsp.a(alt_find_dev.o)
 .data          0x000000000801ab1c        0x0 ../recorder_nios_bsp//libucosii_bsp.a(alt_icache_flush_all.o)
 .data          0x000000000801ab1c        0x0 ../recorder_nios_bsp//libucosii_bsp.a(alt_io_redirect.o)
 .data          0x000000000801ab1c        0x0 ../recorder_nios_bsp//libucosii_bsp.a(alt_irq_register.o)
 .data          0x000000000801ab1c        0x0 ../recorder_nios_bsp//libucosii_bsp.a(alt_irq_vars.o)
 .data          0x000000000801ab1c        0x0 ../recorder_nios_bsp//libucosii_bsp.a(alt_open.o)
 .data          0x000000000801ab1c        0x0 ../recorder_nios_bsp//libucosii_bsp.a(alt_tick.o)
 .data          0x000000000801ab1c        0x0 ../recorder_nios_bsp//libucosii_bsp.a(altera_nios2_gen2_irq.o)
 .data          0x000000000801ab1c        0x0 ../recorder_nios_bsp//libucosii_bsp.a(os_cpu_a.o)
 .data          0x000000000801ab1c        0x0 ../recorder_nios_bsp//libucosii_bsp.a(os_cpu_c.o)
 .data          0x000000000801ab1c        0x0 ../recorder_nios_bsp//libucosii_bsp.a(alt_find_file.o)
 .data          0x000000000801ab1c        0x0 ../recorder_nios_bsp//libucosii_bsp.a(alt_get_fd.o)
 .data          0x000000000801ab1c        0x0 ../recorder_nios_bsp//libucosii_bsp.a(alt_icache_flush.o)
 .data          0x000000000801ab1c        0x0 ../recorder_nios_bsp//libucosii_bsp.a(alt_irq_entry.o)
 .data          0x000000000801ab1c        0x0 ../recorder_nios_bsp//libucosii_bsp.a(alt_irq_handler.o)
 .data          0x000000000801ab1c        0x0 ../recorder_nios_bsp//libucosii_bsp.a(alt_exception_entry.o)
 .data          0x000000000801ab1c        0x0 ../recorder_nios_bsp//libucosii_bsp.a(alt_instruction_exception_entry.o)
 .data          0x000000000801ab1c        0x0 /home/alpha/altera/15.1/nios2eds/bin/gnu/H-x86_64-pc-linux-gnu/bin/../lib/gcc/nios2-elf/4.9.2/../../../../../H-x86_64-pc-linux-gnu/nios2-elf/lib/libc.a(lib_a-atexit.o)
 .data          0x000000000801ab1c        0x0 /home/alpha/altera/15.1/nios2eds/bin/gnu/H-x86_64-pc-linux-gnu/bin/../lib/gcc/nios2-elf/4.9.2/../../../../../H-x86_64-pc-linux-gnu/nios2-elf/lib/libc.a(lib_a-exit.o)
 .data          0x000000000801ab1c        0x0 /home/alpha/altera/15.1/nios2eds/bin/gnu/H-x86_64-pc-linux-gnu/bin/../lib/gcc/nios2-elf/4.9.2/../../../../../H-x86_64-pc-linux-gnu/nios2-elf/lib/libc.a(lib_a-memcmp.o)
 .data          0x000000000801ab1c        0x0 /home/alpha/altera/15.1/nios2eds/bin/gnu/H-x86_64-pc-linux-gnu/bin/../lib/gcc/nios2-elf/4.9.2/../../../../../H-x86_64-pc-linux-gnu/nios2-elf/lib/libc.a(lib_a-__atexit.o)
 .data          0x000000000801ab1c        0x0 /home/alpha/altera/15.1/nios2eds/bin/gnu/H-x86_64-pc-linux-gnu/bin/../lib/gcc/nios2-elf/4.9.2/../../../../../H-x86_64-pc-linux-gnu/nios2-elf/lib/libc.a(lib_a-__call_atexit.o)
 .data          0x000000000801ab1c        0x0 ../recorder_nios_bsp//libucosii_bsp.a(alt_exit.o)
                0x0000000008022b1c                _gp = ABSOLUTE ((. + 0x8000))
                0x0000000008022b1c                PROVIDE (gp, _gp)
 *(.rwdata .rwdata.*)
 *(.sdata .sdata.* .gnu.linkonce.s.*)
 .sdata._ZTI5Color
                0x000000000801ab1c        0x8 obj/default/LCD/Color.o
                0x000000000801ab1c                typeinfo for Color
 .sdata._ZTS5Color
                0x000000000801ab24        0x8 obj/default/LCD/Color.o
                0x000000000801ab24                typeinfo name for Color
 .sdata         0x000000000801ab2c        0x8 obj/default/audio/audio_core.o
 .sdata._ZTISt9type_info
                0x000000000801ab34        0x8 /home/alpha/altera/15.1/nios2eds/bin/gnu/H-x86_64-pc-linux-gnu/bin/../lib/gcc/nios2-elf/4.9.2/../../../../../H-x86_64-pc-linux-gnu/nios2-elf/lib/libstdc++.a(tinfo.o)
                0x000000000801ab34                typeinfo for std::type_info
 .sdata.__malloc_sbrk_base
                0x000000000801ab3c        0x4 /home/alpha/altera/15.1/nios2eds/bin/gnu/H-x86_64-pc-linux-gnu/bin/../lib/gcc/nios2-elf/4.9.2/../../../../../H-x86_64-pc-linux-gnu/nios2-elf/lib/libc.a(lib_a-mallocr.o)
                0x000000000801ab3c                __malloc_sbrk_base
 .sdata.__malloc_trim_threshold
                0x000000000801ab40        0x4 /home/alpha/altera/15.1/nios2eds/bin/gnu/H-x86_64-pc-linux-gnu/bin/../lib/gcc/nios2-elf/4.9.2/../../../../../H-x86_64-pc-linux-gnu/nios2-elf/lib/libc.a(lib_a-mallocr.o)
                0x000000000801ab40                __malloc_trim_threshold
 .sdata._global_impure_ptr
                0x000000000801ab44        0x4 /home/alpha/altera/15.1/nios2eds/bin/gnu/H-x86_64-pc-linux-gnu/bin/../lib/gcc/nios2-elf/4.9.2/../../../../../H-x86_64-pc-linux-gnu/nios2-elf/lib/libc.a(lib_a-impure.o)
                0x000000000801ab44                _global_impure_ptr
 .sdata._impure_ptr
                0x000000000801ab48        0x4 /home/alpha/altera/15.1/nios2eds/bin/gnu/H-x86_64-pc-linux-gnu/bin/../lib/gcc/nios2-elf/4.9.2/../../../../../H-x86_64-pc-linux-gnu/nios2-elf/lib/libc.a(lib_a-impure.o)
                0x000000000801ab48                _impure_ptr
 .sdata         0x000000000801ab4c       0x14 ../recorder_nios_bsp//libucosii_bsp.a(alt_dev.o)
                0x000000000801ab4c                alt_fs_list
                0x000000000801ab54                alt_dev_list
                0x000000000801ab5c                alt_max_fd
 .sdata         0x000000000801ab60        0x4 ../recorder_nios_bsp//libucosii_bsp.a(alt_errno.o)
                0x000000000801ab60                alt_errno
 .sdata         0x000000000801ab64        0x4 ../recorder_nios_bsp//libucosii_bsp.a(alt_sbrk.o)
 .sdata         0x000000000801ab68        0x4 ../recorder_nios_bsp//libucosii_bsp.a(alt_env_lock.o)
 .sdata         0x000000000801ab6c        0x4 ../recorder_nios_bsp//libucosii_bsp.a(alt_malloc_lock.o)
 .sdata         0x000000000801ab70       0x74 ../recorder_nios_bsp//libucosii_bsp.a(os_dbg.o)
                0x000000000801ab70                OSDebugEn
                0x000000000801ab74                OSEndiannessTest
                0x000000000801ab78                OSEventEn
                0x000000000801ab7a                OSEventMax
                0x000000000801ab7c                OSEventNameSize
                0x000000000801ab7e                OSEventSize
                0x000000000801ab80                OSEventTblSize
                0x000000000801ab82                OSEventMultiEn
                0x000000000801ab84                OSFlagEn
                0x000000000801ab86                OSFlagGrpSize
                0x000000000801ab88                OSFlagNodeSize
                0x000000000801ab8a                OSFlagWidth
                0x000000000801ab8c                OSFlagMax
                0x000000000801ab8e                OSFlagNameSize
                0x000000000801ab90                OSLowestPrio
                0x000000000801ab92                OSMboxEn
                0x000000000801ab94                OSMemEn
                0x000000000801ab96                OSMemMax
                0x000000000801ab98                OSMemNameSize
                0x000000000801ab9a                OSMemSize
                0x000000000801ab9c                OSMemTblSize
                0x000000000801ab9e                OSMutexEn
                0x000000000801aba0                OSPtrSize
                0x000000000801aba2                OSQEn
                0x000000000801aba4                OSQMax
                0x000000000801aba6                OSQSize
                0x000000000801aba8                OSRdyTblSize
                0x000000000801abaa                OSSemEn
                0x000000000801abac                OSStkWidth
                0x000000000801abae                OSTaskCreateEn
                0x000000000801abb0                OSTaskCreateExtEn
                0x000000000801abb2                OSTaskDelEn
                0x000000000801abb4                OSTaskIdleStkSize
                0x000000000801abb6                OSTaskProfileEn
                0x000000000801abb8                OSTaskMax
                0x000000000801abba                OSTaskNameSize
                0x000000000801abbc                OSTaskStatEn
                0x000000000801abbe                OSTaskStatStkSize
                0x000000000801abc0                OSTaskStatStkChkEn
                0x000000000801abc2                OSTaskSwHookEn
                0x000000000801abc4                OSTCBPrioTblMax
                0x000000000801abc6                OSTCBSize
                0x000000000801abc8                OSTicksPerSec
                0x000000000801abca                OSTimeTickHookEn
                0x000000000801abcc                OSVersionNbr
                0x000000000801abce                OSTmrEn
                0x000000000801abd0                OSTmrCfgMax
                0x000000000801abd2                OSTmrCfgNameSize
                0x000000000801abd4                OSTmrCfgWheelSize
                0x000000000801abd6                OSTmrCfgTicksPerSec
                0x000000000801abd8                OSTmrSize
                0x000000000801abda                OSTmrTblSize
                0x000000000801abdc                OSTmrWheelSize
                0x000000000801abde                OSTmrWheelTblSize
                0x000000000801abe0                OSDataSize
 .sdata         0x000000000801abe4        0x4 ../recorder_nios_bsp//libucosii_bsp.a(alt_irq_vars.o)
                0x000000000801abe4                alt_priority_mask
 .sdata         0x000000000801abe8        0x8 ../recorder_nios_bsp//libucosii_bsp.a(alt_tick.o)
                0x000000000801abe8                alt_alarm_list
 *(.sdata2 .sdata2.* .gnu.linkonce.s2.*)
                0x000000000801abf0                . = ALIGN (0x4)
                0x000000000801abf0                _edata = ABSOLUTE (.)
                0x000000000801abf0                PROVIDE (edata, ABSOLUTE (.))
                0x000000000801abf0                PROVIDE (__ram_rwdata_end, ABSOLUTE (.))
                0x000000000801abf0                PROVIDE (__flash_rwdata_start, LOADADDR (.rwdata))

.bss            0x0000000008025260     0x7bf0
                0x0000000008025260                __bss_start = ABSOLUTE (.)
                0x0000000008025260                PROVIDE (__sbss_start, ABSOLUTE (.))
                0x0000000008025260                PROVIDE (___sbss_start, ABSOLUTE (.))
 *(.dynsbss)
 *(.sbss .sbss.* .gnu.linkonce.sb.*)
 .sbss          0x0000000008025260        0x4 obj/default/LCD/lcd_core.o
                0x0000000008025260                LCD::dev
 .sbss          0x0000000008025264       0x10 obj/default/audio/audio_core.o
                0x0000000008025264                Audio::dev
                0x0000000008025268                Audio::buf_head
                0x000000000802526c                Audio::buf_tail
                0x0000000008025270                Audio::max_lat
 .sbss.__malloc_max_total_mem
                0x0000000008025274        0x4 /home/alpha/altera/15.1/nios2eds/bin/gnu/H-x86_64-pc-linux-gnu/bin/../lib/gcc/nios2-elf/4.9.2/../../../../../H-x86_64-pc-linux-gnu/nios2-elf/lib/libc.a(lib_a-mallocr.o)
                0x0000000008025274                __malloc_max_total_mem
 .sbss.__malloc_max_sbrked_mem
                0x0000000008025278        0x4 /home/alpha/altera/15.1/nios2eds/bin/gnu/H-x86_64-pc-linux-gnu/bin/../lib/gcc/nios2-elf/4.9.2/../../../../../H-x86_64-pc-linux-gnu/nios2-elf/lib/libc.a(lib_a-mallocr.o)
                0x0000000008025278                __malloc_max_sbrked_mem
 .sbss.__malloc_top_pad
                0x000000000802527c        0x4 /home/alpha/altera/15.1/nios2eds/bin/gnu/H-x86_64-pc-linux-gnu/bin/../lib/gcc/nios2-elf/4.9.2/../../../../../H-x86_64-pc-linux-gnu/nios2-elf/lib/libc.a(lib_a-mallocr.o)
                0x000000000802527c                __malloc_top_pad
 .sbss          0x0000000008025280        0x4 /home/alpha/altera/15.1/nios2eds/bin/gnu/H-x86_64-pc-linux-gnu/bin/../lib/gcc/nios2-elf/4.9.2/../../../../../H-x86_64-pc-linux-gnu/nios2-elf/lib/libc.a(lib_a-int_errno.o)
                0x0000000008025280                errno
 .sbss          0x0000000008025284        0x4 ../recorder_nios_bsp//libucosii_bsp.a(alt_dev.o)
                0x0000000008025284                alt_fd_list_lock
 .sbss          0x0000000008025288        0xc ../recorder_nios_bsp//libucosii_bsp.a(alt_main.o)
                0x0000000008025288                alt_argc
                0x000000000802528c                alt_argv
                0x0000000008025290                alt_envp
 .sbss          0x0000000008025294        0x8 ../recorder_nios_bsp//libucosii_bsp.a(alt_env_lock.o)
                0x0000000008025298                alt_envsem
 .sbss          0x000000000802529c        0x8 ../recorder_nios_bsp//libucosii_bsp.a(alt_malloc_lock.o)
                0x00000000080252a0                alt_heapsem
 .sbss          0x00000000080252a4       0x50 ../recorder_nios_bsp//libucosii_bsp.a(os_core.o)
                0x00000000080252a4                OSLockNesting
                0x00000000080252a5                OSRunning
                0x00000000080252a8                OSIdleCtr
                0x00000000080252ac                OSPrioHighRdy
                0x00000000080252ad                OSPrioCur
                0x00000000080252b0                OSTCBList
                0x00000000080252b4                OSTickStepState
                0x00000000080252b8                OSCtxSwCtr
                0x00000000080252bc                OSIdleCtrMax
                0x00000000080252c0                OSTCBFreeList
                0x00000000080252c4                OSCPUUsage
                0x00000000080252c5                OSTaskCtr
                0x00000000080252c8                OSMemFreeList
                0x00000000080252cc                OSTCBHighRdy
                0x00000000080252d0                OSQFreeList
                0x00000000080252d4                OSRdyGrp
                0x00000000080252d5                OSRdyTbl
                0x00000000080252d8                OSEventFreeList
                0x00000000080252dc                OSIntNesting
                0x00000000080252e0                OSTCBCur
                0x00000000080252e4                OSTime
                0x00000000080252e8                OSFlagFreeList
                0x00000000080252ec                OSStatRdy
                0x00000000080252f0                OSIdleCtrRun
 .sbss          0x00000000080252f4        0x4 ../recorder_nios_bsp//libucosii_bsp.a(alt_irq_vars.o)
                0x00000000080252f4                alt_irq_active
 .sbss          0x00000000080252f8        0x8 ../recorder_nios_bsp//libucosii_bsp.a(alt_tick.o)
                0x00000000080252f8                _alt_tick_rate
                0x00000000080252fc                _alt_nticks
 .sbss          0x0000000008025300        0x4 ../recorder_nios_bsp//libucosii_bsp.a(alt_instruction_exception_entry.o)
                0x0000000008025300                alt_instruction_exception_handler
 *(.sbss2 .sbss2.* .gnu.linkonce.sb2.*)
 *(.scommon)
                0x0000000008025304                PROVIDE (__sbss_end, ABSOLUTE (.))
                0x0000000008025304                PROVIDE (___sbss_end, ABSOLUTE (.))
 *(.dynbss)
 *(.bss .bss.* .gnu.linkonce.b.*)
 .bss           0x0000000008025304        0x0 ../recorder_nios_bsp//obj/HAL/src/crt0.o
 .bss           0x0000000008025304        0x0 obj/default/LCD/font/arial18.o
 .bss           0x0000000008025304        0x0 obj/default/LCD/font/arial22.o
 .bss           0x0000000008025304        0x0 obj/default/LCD/font/arial40.o
 .bss           0x0000000008025304        0x0 obj/default/LCD/Color.o
 .bss           0x0000000008025304        0x0 obj/default/LCD/lcd_core.o
 .bss           0x0000000008025304      0x800 obj/default/audio/audio_core.o
                0x0000000008025304                Audio::buffer
                0x0000000008025704                Audio::_tmp_buf
 .bss           0x0000000008025b04     0x4000 obj/default/main.o
                0x0000000008025b04                task2_stk
                0x0000000008027b04                task1_stk
 .bss           0x0000000008029b04        0x0 /home/alpha/altera/15.1/nios2eds/bin/gnu/H-x86_64-pc-linux-gnu/bin/../lib/gcc/nios2-elf/4.9.2/../../../../../H-x86_64-pc-linux-gnu/nios2-elf/lib/libstdc++.a(class_type_info.o)
 .bss           0x0000000008029b04        0x0 /home/alpha/altera/15.1/nios2eds/bin/gnu/H-x86_64-pc-linux-gnu/bin/../lib/gcc/nios2-elf/4.9.2/../../../../../H-x86_64-pc-linux-gnu/nios2-elf/lib/libstdc++.a(del_op.o)
 .bss           0x0000000008029b04        0x0 /home/alpha/altera/15.1/nios2eds/bin/gnu/H-x86_64-pc-linux-gnu/bin/../lib/gcc/nios2-elf/4.9.2/../../../../../H-x86_64-pc-linux-gnu/nios2-elf/lib/libstdc++.a(si_class_type_info.o)
 .bss           0x0000000008029b04        0x0 /home/alpha/altera/15.1/nios2eds/bin/gnu/H-x86_64-pc-linux-gnu/bin/../lib/gcc/nios2-elf/4.9.2/../../../../../H-x86_64-pc-linux-gnu/nios2-elf/lib/libstdc++.a(tinfo.o)
 .bss           0x0000000008029b04        0x0 /home/alpha/altera/15.1/nios2eds/bin/gnu/H-x86_64-pc-linux-gnu/bin/../lib/gcc/nios2-elf/4.9.2/../../../../../H-x86_64-pc-linux-gnu/nios2-elf/lib/libc.a(lib_a-malloc.o)
 .bss           0x0000000008029b04        0x0 /home/alpha/altera/15.1/nios2eds/bin/gnu/H-x86_64-pc-linux-gnu/bin/../lib/gcc/nios2-elf/4.9.2/../../../../../H-x86_64-pc-linux-gnu/nios2-elf/lib/libc.a(lib_a-mallocr.o)
 .bss.__malloc_current_mallinfo
                0x0000000008029b04       0x28 /home/alpha/altera/15.1/nios2eds/bin/gnu/H-x86_64-pc-linux-gnu/bin/../lib/gcc/nios2-elf/4.9.2/../../../../../H-x86_64-pc-linux-gnu/nios2-elf/lib/libc.a(lib_a-mallocr.o)
                0x0000000008029b04                __malloc_current_mallinfo
 .bss           0x0000000008029b2c        0x0 /home/alpha/altera/15.1/nios2eds/bin/gnu/H-x86_64-pc-linux-gnu/bin/../lib/gcc/nios2-elf/4.9.2/../../../../../H-x86_64-pc-linux-gnu/nios2-elf/lib/libc.a(lib_a-puts.o)
 .bss           0x0000000008029b2c        0x0 /home/alpha/altera/15.1/nios2eds/bin/gnu/H-x86_64-pc-linux-gnu/bin/../lib/gcc/nios2-elf/4.9.2/../../../../../H-x86_64-pc-linux-gnu/nios2-elf/lib/libc.a(lib_a-sbrkr.o)
 .bss           0x0000000008029b2c        0x0 /home/alpha/altera/15.1/nios2eds/bin/gnu/H-x86_64-pc-linux-gnu/bin/../lib/gcc/nios2-elf/4.9.2/../../../../../H-x86_64-pc-linux-gnu/nios2-elf/lib/libc.a(lib_a-strcmp.o)
 .bss           0x0000000008029b2c        0x0 /home/alpha/altera/15.1/nios2eds/bin/gnu/H-x86_64-pc-linux-gnu/bin/../lib/gcc/nios2-elf/4.9.2/../../../../../H-x86_64-pc-linux-gnu/nios2-elf/lib/libc.a(lib_a-strlen.o)
 .bss           0x0000000008029b2c        0x0 /home/alpha/altera/15.1/nios2eds/bin/gnu/H-x86_64-pc-linux-gnu/bin/../lib/gcc/nios2-elf/4.9.2/../../../../../H-x86_64-pc-linux-gnu/nios2-elf/lib/libc.a(lib_a-freer.o)
 .bss           0x0000000008029b2c        0x0 /home/alpha/altera/15.1/nios2eds/bin/gnu/H-x86_64-pc-linux-gnu/bin/../lib/gcc/nios2-elf/4.9.2/../../../../../H-x86_64-pc-linux-gnu/nios2-elf/lib/libc.a(lib_a-fvwrite.o)
 .bss           0x0000000008029b2c        0x0 /home/alpha/altera/15.1/nios2eds/bin/gnu/H-x86_64-pc-linux-gnu/bin/../lib/gcc/nios2-elf/4.9.2/../../../../../H-x86_64-pc-linux-gnu/nios2-elf/lib/libc.a(lib_a-impure.o)
 .bss           0x0000000008029b2c        0x0 /home/alpha/altera/15.1/nios2eds/bin/gnu/H-x86_64-pc-linux-gnu/bin/../lib/gcc/nios2-elf/4.9.2/../../../../../H-x86_64-pc-linux-gnu/nios2-elf/lib/libc.a(lib_a-int_errno.o)
 .bss           0x0000000008029b2c        0x0 /home/alpha/altera/15.1/nios2eds/bin/gnu/H-x86_64-pc-linux-gnu/bin/../lib/gcc/nios2-elf/4.9.2/../../../../../H-x86_64-pc-linux-gnu/nios2-elf/lib/libc.a(lib_a-memchr.o)
 .bss           0x0000000008029b2c        0x0 /home/alpha/altera/15.1/nios2eds/bin/gnu/H-x86_64-pc-linux-gnu/bin/../lib/gcc/nios2-elf/4.9.2/../../../../../H-x86_64-pc-linux-gnu/nios2-elf/lib/libc.a(lib_a-memcpy.o)
 .bss           0x0000000008029b2c        0x0 /home/alpha/altera/15.1/nios2eds/bin/gnu/H-x86_64-pc-linux-gnu/bin/../lib/gcc/nios2-elf/4.9.2/../../../../../H-x86_64-pc-linux-gnu/nios2-elf/lib/libc.a(lib_a-memmove.o)
 .bss           0x0000000008029b2c        0x0 /home/alpha/altera/15.1/nios2eds/bin/gnu/H-x86_64-pc-linux-gnu/bin/../lib/gcc/nios2-elf/4.9.2/../../../../../H-x86_64-pc-linux-gnu/nios2-elf/lib/libc.a(lib_a-reallocr.o)
 .bss           0x0000000008029b2c        0x0 /home/alpha/altera/15.1/nios2eds/bin/gnu/H-x86_64-pc-linux-gnu/bin/../lib/gcc/nios2-elf/4.9.2/../../../../../H-x86_64-pc-linux-gnu/nios2-elf/lib/libc.a(lib_a-wsetup.o)
 .bss           0x0000000008029b2c        0x0 /home/alpha/altera/15.1/nios2eds/bin/gnu/H-x86_64-pc-linux-gnu/bin/../lib/gcc/nios2-elf/4.9.2/../../../../../H-x86_64-pc-linux-gnu/nios2-elf/lib/libc.a(lib_a-fflush.o)
 .bss           0x0000000008029b2c        0x0 /home/alpha/altera/15.1/nios2eds/bin/gnu/H-x86_64-pc-linux-gnu/bin/../lib/gcc/nios2-elf/4.9.2/../../../../../H-x86_64-pc-linux-gnu/nios2-elf/lib/libc.a(lib_a-findfp.o)
 .bss           0x0000000008029b2c        0x0 /home/alpha/altera/15.1/nios2eds/bin/gnu/H-x86_64-pc-linux-gnu/bin/../lib/gcc/nios2-elf/4.9.2/../../../../../H-x86_64-pc-linux-gnu/nios2-elf/lib/libc.a(lib_a-fwalk.o)
 .bss           0x0000000008029b2c        0x0 /home/alpha/altera/15.1/nios2eds/bin/gnu/H-x86_64-pc-linux-gnu/bin/../lib/gcc/nios2-elf/4.9.2/../../../../../H-x86_64-pc-linux-gnu/nios2-elf/lib/libc.a(lib_a-makebuf.o)
 .bss           0x0000000008029b2c        0x0 /home/alpha/altera/15.1/nios2eds/bin/gnu/H-x86_64-pc-linux-gnu/bin/../lib/gcc/nios2-elf/4.9.2/../../../../../H-x86_64-pc-linux-gnu/nios2-elf/lib/libc.a(lib_a-memset.o)
 .bss           0x0000000008029b2c        0x0 /home/alpha/altera/15.1/nios2eds/bin/gnu/H-x86_64-pc-linux-gnu/bin/../lib/gcc/nios2-elf/4.9.2/../../../../../H-x86_64-pc-linux-gnu/nios2-elf/lib/libc.a(lib_a-stdio.o)
 .bss           0x0000000008029b2c        0x0 /home/alpha/altera/15.1/nios2eds/bin/gnu/H-x86_64-pc-linux-gnu/bin/../lib/gcc/nios2-elf/4.9.2/../../../../../H-x86_64-pc-linux-gnu/nios2-elf/lib/libc.a(lib_a-writer.o)
 .bss           0x0000000008029b2c        0x0 /home/alpha/altera/15.1/nios2eds/bin/gnu/H-x86_64-pc-linux-gnu/bin/../lib/gcc/nios2-elf/4.9.2/../../../../../H-x86_64-pc-linux-gnu/nios2-elf/lib/libc.a(closer.o)
 .bss           0x0000000008029b2c        0x0 /home/alpha/altera/15.1/nios2eds/bin/gnu/H-x86_64-pc-linux-gnu/bin/../lib/gcc/nios2-elf/4.9.2/../../../../../H-x86_64-pc-linux-gnu/nios2-elf/lib/libc.a(lib_a-fclose.o)
 .bss           0x0000000008029b2c        0x0 /home/alpha/altera/15.1/nios2eds/bin/gnu/H-x86_64-pc-linux-gnu/bin/../lib/gcc/nios2-elf/4.9.2/../../../../../H-x86_64-pc-linux-gnu/nios2-elf/lib/libc.a(lib_a-fstatr.o)
 .bss           0x0000000008029b2c        0x0 /home/alpha/altera/15.1/nios2eds/bin/gnu/H-x86_64-pc-linux-gnu/bin/../lib/gcc/nios2-elf/4.9.2/../../../../../H-x86_64-pc-linux-gnu/nios2-elf/lib/libc.a(lib_a-isattyr.o)
 .bss           0x0000000008029b2c        0x0 /home/alpha/altera/15.1/nios2eds/bin/gnu/H-x86_64-pc-linux-gnu/bin/../lib/gcc/nios2-elf/4.9.2/../../../../../H-x86_64-pc-linux-gnu/nios2-elf/lib/libc.a(lib_a-lseekr.o)
 .bss           0x0000000008029b2c        0x0 /home/alpha/altera/15.1/nios2eds/bin/gnu/H-x86_64-pc-linux-gnu/bin/../lib/gcc/nios2-elf/4.9.2/../../../../../H-x86_64-pc-linux-gnu/nios2-elf/lib/libc.a(lib_a-readr.o)
 .bss           0x0000000008029b2c        0x0 /home/alpha/altera/15.1/nios2eds/bin/gnu/H-x86_64-pc-linux-gnu/bin/../lib/gcc/nios2-elf/4.9.2/libgcc.a(lib2-divmod.o)
 .bss           0x0000000008029b2c        0x0 ../recorder_nios_bsp//libucosii_bsp.a(alt_close.o)
 .bss           0x0000000008029b2c        0x0 ../recorder_nios_bsp//libucosii_bsp.a(alt_dev.o)
 .bss           0x0000000008029b2c        0x0 ../recorder_nios_bsp//libucosii_bsp.a(alt_errno.o)
 .bss           0x0000000008029b2c        0x0 ../recorder_nios_bsp//libucosii_bsp.a(alt_fstat.o)
 .bss           0x0000000008029b2c        0x0 ../recorder_nios_bsp//libucosii_bsp.a(alt_isatty.o)
 .bss           0x0000000008029b2c        0x0 ../recorder_nios_bsp//libucosii_bsp.a(alt_load.o)
 .bss           0x0000000008029b2c        0x0 ../recorder_nios_bsp//libucosii_bsp.a(alt_lseek.o)
 .bss           0x0000000008029b2c        0x0 ../recorder_nios_bsp//libucosii_bsp.a(alt_main.o)
 .bss           0x0000000008029b2c        0x0 ../recorder_nios_bsp//libucosii_bsp.a(alt_read.o)
 .bss           0x0000000008029b2c        0x0 ../recorder_nios_bsp//libucosii_bsp.a(alt_release_fd.o)
 .bss           0x0000000008029b2c        0x0 ../recorder_nios_bsp//libucosii_bsp.a(alt_sbrk.o)
 .bss           0x0000000008029b2c        0x0 ../recorder_nios_bsp//libucosii_bsp.a(alt_write.o)
 .bss           0x0000000008029b2c        0x0 ../recorder_nios_bsp//libucosii_bsp.a(alt_env_lock.o)
 .bss           0x0000000008029b2c        0x0 ../recorder_nios_bsp//libucosii_bsp.a(alt_malloc_lock.o)
 .bss           0x0000000008029b2c        0x0 ../recorder_nios_bsp//libucosii_bsp.a(os_core.o)
 .bss           0x0000000008029b2c        0x0 ../recorder_nios_bsp//libucosii_bsp.a(os_dbg.o)
 .bss           0x0000000008029b2c        0x0 ../recorder_nios_bsp//libucosii_bsp.a(os_flag.o)
 .bss           0x0000000008029b2c        0x0 ../recorder_nios_bsp//libucosii_bsp.a(os_mem.o)
 .bss           0x0000000008029b2c        0x0 ../recorder_nios_bsp//libucosii_bsp.a(os_q.o)
 .bss           0x0000000008029b2c        0x0 ../recorder_nios_bsp//libucosii_bsp.a(os_sem.o)
 .bss           0x0000000008029b2c        0x0 ../recorder_nios_bsp//libucosii_bsp.a(os_task.o)
 .bss           0x0000000008029b2c        0x0 ../recorder_nios_bsp//libucosii_bsp.a(os_time.o)
 .bss           0x0000000008029b2c        0x0 ../recorder_nios_bsp//libucosii_bsp.a(alt_sys_init.o)
 .bss           0x0000000008029b2c        0x0 ../recorder_nios_bsp//libucosii_bsp.a(altera_avalon_jtag_uart_fd.o)
 .bss           0x0000000008029b2c        0x0 ../recorder_nios_bsp//libucosii_bsp.a(altera_avalon_jtag_uart_init.o)
 .bss           0x0000000008029b2c        0x0 ../recorder_nios_bsp//libucosii_bsp.a(altera_avalon_jtag_uart_ioctl.o)
 .bss           0x0000000008029b2c        0x0 ../recorder_nios_bsp//libucosii_bsp.a(altera_avalon_jtag_uart_read.o)
 .bss           0x0000000008029b2c        0x0 ../recorder_nios_bsp//libucosii_bsp.a(altera_avalon_jtag_uart_write.o)
 .bss           0x0000000008029b2c        0x0 ../recorder_nios_bsp//libucosii_bsp.a(altera_avalon_timer_sc.o)
 .bss           0x0000000008029b2c        0x0 ../recorder_nios_bsp//libucosii_bsp.a(altera_up_avalon_audio.o)
 .bss           0x0000000008029b2c        0x0 ../recorder_nios_bsp//libucosii_bsp.a(altera_up_avalon_video_pixel_buffer_dma.o)
 .bss           0x0000000008029b2c        0x0 ../recorder_nios_bsp//libucosii_bsp.a(alt_alarm_start.o)
 .bss           0x0000000008029b2c        0x0 ../recorder_nios_bsp//libucosii_bsp.a(alt_dcache_flush_all.o)
 .bss           0x0000000008029b2c        0x0 ../recorder_nios_bsp//libucosii_bsp.a(alt_dev_llist_insert.o)
 .bss           0x0000000008029b2c        0x0 ../recorder_nios_bsp//libucosii_bsp.a(alt_do_ctors.o)
 .bss           0x0000000008029b2c        0x0 ../recorder_nios_bsp//libucosii_bsp.a(alt_do_dtors.o)
 .bss           0x0000000008029b2c        0x0 ../recorder_nios_bsp//libucosii_bsp.a(alt_find_dev.o)
 .bss           0x0000000008029b2c        0x0 ../recorder_nios_bsp//libucosii_bsp.a(alt_icache_flush_all.o)
 .bss           0x0000000008029b2c        0x0 ../recorder_nios_bsp//libucosii_bsp.a(alt_io_redirect.o)
 .bss           0x0000000008029b2c        0x0 ../recorder_nios_bsp//libucosii_bsp.a(alt_irq_register.o)
 .bss           0x0000000008029b2c        0x0 ../recorder_nios_bsp//libucosii_bsp.a(alt_irq_vars.o)
 .bss           0x0000000008029b2c        0x0 ../recorder_nios_bsp//libucosii_bsp.a(alt_open.o)
 .bss           0x0000000008029b2c        0x0 ../recorder_nios_bsp//libucosii_bsp.a(alt_tick.o)
 .bss           0x0000000008029b2c        0x0 ../recorder_nios_bsp//libucosii_bsp.a(altera_nios2_gen2_irq.o)
 .bss           0x0000000008029b2c        0x0 ../recorder_nios_bsp//libucosii_bsp.a(os_cpu_a.o)
 .bss           0x0000000008029b2c        0x0 ../recorder_nios_bsp//libucosii_bsp.a(os_cpu_c.o)
 .bss           0x0000000008029b2c        0x0 ../recorder_nios_bsp//libucosii_bsp.a(alt_find_file.o)
 .bss           0x0000000008029b2c        0x0 ../recorder_nios_bsp//libucosii_bsp.a(alt_get_fd.o)
 .bss           0x0000000008029b2c        0x0 ../recorder_nios_bsp//libucosii_bsp.a(alt_icache_flush.o)
 .bss           0x0000000008029b2c        0x0 ../recorder_nios_bsp//libucosii_bsp.a(alt_irq_entry.o)
 .bss           0x0000000008029b2c        0x0 ../recorder_nios_bsp//libucosii_bsp.a(alt_irq_handler.o)
 .bss           0x0000000008029b2c        0x0 ../recorder_nios_bsp//libucosii_bsp.a(alt_exception_entry.o)
 .bss           0x0000000008029b2c        0x0 ../recorder_nios_bsp//libucosii_bsp.a(alt_instruction_exception_entry.o)
 .bss           0x0000000008029b2c        0x0 /home/alpha/altera/15.1/nios2eds/bin/gnu/H-x86_64-pc-linux-gnu/bin/../lib/gcc/nios2-elf/4.9.2/../../../../../H-x86_64-pc-linux-gnu/nios2-elf/lib/libc.a(lib_a-atexit.o)
 .bss           0x0000000008029b2c        0x0 /home/alpha/altera/15.1/nios2eds/bin/gnu/H-x86_64-pc-linux-gnu/bin/../lib/gcc/nios2-elf/4.9.2/../../../../../H-x86_64-pc-linux-gnu/nios2-elf/lib/libc.a(lib_a-exit.o)
 .bss           0x0000000008029b2c        0x0 /home/alpha/altera/15.1/nios2eds/bin/gnu/H-x86_64-pc-linux-gnu/bin/../lib/gcc/nios2-elf/4.9.2/../../../../../H-x86_64-pc-linux-gnu/nios2-elf/lib/libc.a(lib_a-memcmp.o)
 .bss           0x0000000008029b2c        0x0 /home/alpha/altera/15.1/nios2eds/bin/gnu/H-x86_64-pc-linux-gnu/bin/../lib/gcc/nios2-elf/4.9.2/../../../../../H-x86_64-pc-linux-gnu/nios2-elf/lib/libc.a(lib_a-__atexit.o)
 .bss           0x0000000008029b2c        0x0 /home/alpha/altera/15.1/nios2eds/bin/gnu/H-x86_64-pc-linux-gnu/bin/../lib/gcc/nios2-elf/4.9.2/../../../../../H-x86_64-pc-linux-gnu/nios2-elf/lib/libc.a(lib_a-__call_atexit.o)
 .bss           0x0000000008029b2c        0x0 ../recorder_nios_bsp//libucosii_bsp.a(alt_exit.o)
 *(COMMON)
 COMMON         0x0000000008029b2c     0x3224 ../recorder_nios_bsp//libucosii_bsp.a(os_core.o)
                0x0000000008029b2c                OSFlagTbl
                0x0000000008029e9c                OSMemTbl
                0x000000000802aacc                OSTaskStatStk
                0x000000000802b2cc                OSQTbl
                0x000000000802b4ac                OSTaskIdleStk
                0x000000000802bcac                OSEventTbl
                0x000000000802c7ec                OSTCBTbl
                0x000000000802ccfc                OSTCBPrioTbl
 COMMON         0x000000000802cd50      0x100 ../recorder_nios_bsp//libucosii_bsp.a(alt_irq_handler.o)
                0x000000000802cd50                alt_irq
                0x000000000802ce50                . = ALIGN (0x4)
                0x000000000802ce50                __bss_end = ABSOLUTE (.)

.sdram_controller
                0x000000000802ce50        0x0
                0x000000000802ce50                PROVIDE (_alt_partition_sdram_controller_start, ABSOLUTE (.))
 *(.sdram_controller .sdram_controller. sdram_controller.*)
                0x000000000802ce50                . = ALIGN (0x4)
                0x000000000802ce50                PROVIDE (_alt_partition_sdram_controller_end, ABSOLUTE (.))
                0x000000000802ce50                _end = ABSOLUTE (.)
                0x000000000802ce50                end = ABSOLUTE (.)
                0x000000000802ce50                __alt_stack_base = ABSOLUTE (.)
                0x000000000802ce50                PROVIDE (_alt_partition_sdram_controller_load_addr, LOADADDR (.sdram_controller))

.onchip_memory2
                0x0000000010220000        0x0 load address 0x000000000802ce50
                0x0000000010220000                PROVIDE (_alt_partition_onchip_memory2_start, ABSOLUTE (.))
 *(.onchip_memory2 .onchip_memory2. onchip_memory2.*)
                0x0000000010220000                . = ALIGN (0x4)
                0x0000000010220000                PROVIDE (_alt_partition_onchip_memory2_end, ABSOLUTE (.))
                0x000000000802ce50                PROVIDE (_alt_partition_onchip_memory2_load_addr, LOADADDR (.onchip_memory2))

.stab
 *(.stab)

.stabstr
 *(.stabstr)

.stab.excl
 *(.stab.excl)

.stab.exclstr
 *(.stab.exclstr)

.stab.index
 *(.stab.index)

.stab.indexstr
 *(.stab.indexstr)

.comment        0x0000000000000000       0x23
 *(.comment)
 .comment       0x0000000000000000       0x23 obj/default/LCD/font/arial18.o
                                         0x24 (size before relaxing)
 .comment       0x0000000000000000       0x24 obj/default/LCD/font/arial22.o
 .comment       0x0000000000000000       0x24 obj/default/LCD/font/arial40.o
 .comment       0x0000000000000000       0x24 obj/default/LCD/Color.o
 .comment       0x0000000000000000       0x24 obj/default/LCD/lcd_core.o
 .comment       0x0000000000000000       0x24 obj/default/audio/audio_core.o
 .comment       0x0000000000000000       0x24 obj/default/main.o
 .comment       0x0000000000000000       0x24 /home/alpha/altera/15.1/nios2eds/bin/gnu/H-x86_64-pc-linux-gnu/bin/../lib/gcc/nios2-elf/4.9.2/../../../../../H-x86_64-pc-linux-gnu/nios2-elf/lib/libstdc++.a(class_type_info.o)
 .comment       0x0000000000000000       0x24 /home/alpha/altera/15.1/nios2eds/bin/gnu/H-x86_64-pc-linux-gnu/bin/../lib/gcc/nios2-elf/4.9.2/../../../../../H-x86_64-pc-linux-gnu/nios2-elf/lib/libstdc++.a(del_op.o)
 .comment       0x0000000000000000       0x24 /home/alpha/altera/15.1/nios2eds/bin/gnu/H-x86_64-pc-linux-gnu/bin/../lib/gcc/nios2-elf/4.9.2/../../../../../H-x86_64-pc-linux-gnu/nios2-elf/lib/libstdc++.a(si_class_type_info.o)
 .comment       0x0000000000000000       0x24 /home/alpha/altera/15.1/nios2eds/bin/gnu/H-x86_64-pc-linux-gnu/bin/../lib/gcc/nios2-elf/4.9.2/../../../../../H-x86_64-pc-linux-gnu/nios2-elf/lib/libstdc++.a(tinfo.o)
 .comment       0x0000000000000000       0x24 /home/alpha/altera/15.1/nios2eds/bin/gnu/H-x86_64-pc-linux-gnu/bin/../lib/gcc/nios2-elf/4.9.2/../../../../../H-x86_64-pc-linux-gnu/nios2-elf/lib/libc.a(lib_a-malloc.o)
 .comment       0x0000000000000000       0x24 /home/alpha/altera/15.1/nios2eds/bin/gnu/H-x86_64-pc-linux-gnu/bin/../lib/gcc/nios2-elf/4.9.2/../../../../../H-x86_64-pc-linux-gnu/nios2-elf/lib/libc.a(lib_a-mallocr.o)
 .comment       0x0000000000000000       0x24 /home/alpha/altera/15.1/nios2eds/bin/gnu/H-x86_64-pc-linux-gnu/bin/../lib/gcc/nios2-elf/4.9.2/../../../../../H-x86_64-pc-linux-gnu/nios2-elf/lib/libc.a(lib_a-puts.o)
 .comment       0x0000000000000000       0x24 /home/alpha/altera/15.1/nios2eds/bin/gnu/H-x86_64-pc-linux-gnu/bin/../lib/gcc/nios2-elf/4.9.2/../../../../../H-x86_64-pc-linux-gnu/nios2-elf/lib/libc.a(lib_a-sbrkr.o)
 .comment       0x0000000000000000       0x24 /home/alpha/altera/15.1/nios2eds/bin/gnu/H-x86_64-pc-linux-gnu/bin/../lib/gcc/nios2-elf/4.9.2/../../../../../H-x86_64-pc-linux-gnu/nios2-elf/lib/libc.a(lib_a-strcmp.o)
 .comment       0x0000000000000000       0x24 /home/alpha/altera/15.1/nios2eds/bin/gnu/H-x86_64-pc-linux-gnu/bin/../lib/gcc/nios2-elf/4.9.2/../../../../../H-x86_64-pc-linux-gnu/nios2-elf/lib/libc.a(lib_a-strlen.o)
 .comment       0x0000000000000000       0x24 /home/alpha/altera/15.1/nios2eds/bin/gnu/H-x86_64-pc-linux-gnu/bin/../lib/gcc/nios2-elf/4.9.2/../../../../../H-x86_64-pc-linux-gnu/nios2-elf/lib/libc.a(lib_a-freer.o)
 .comment       0x0000000000000000       0x24 /home/alpha/altera/15.1/nios2eds/bin/gnu/H-x86_64-pc-linux-gnu/bin/../lib/gcc/nios2-elf/4.9.2/../../../../../H-x86_64-pc-linux-gnu/nios2-elf/lib/libc.a(lib_a-fvwrite.o)
 .comment       0x0000000000000000       0x24 /home/alpha/altera/15.1/nios2eds/bin/gnu/H-x86_64-pc-linux-gnu/bin/../lib/gcc/nios2-elf/4.9.2/../../../../../H-x86_64-pc-linux-gnu/nios2-elf/lib/libc.a(lib_a-impure.o)
 .comment       0x0000000000000000       0x24 /home/alpha/altera/15.1/nios2eds/bin/gnu/H-x86_64-pc-linux-gnu/bin/../lib/gcc/nios2-elf/4.9.2/../../../../../H-x86_64-pc-linux-gnu/nios2-elf/lib/libc.a(lib_a-int_errno.o)
 .comment       0x0000000000000000       0x24 /home/alpha/altera/15.1/nios2eds/bin/gnu/H-x86_64-pc-linux-gnu/bin/../lib/gcc/nios2-elf/4.9.2/../../../../../H-x86_64-pc-linux-gnu/nios2-elf/lib/libc.a(lib_a-memchr.o)
 .comment       0x0000000000000000       0x24 /home/alpha/altera/15.1/nios2eds/bin/gnu/H-x86_64-pc-linux-gnu/bin/../lib/gcc/nios2-elf/4.9.2/../../../../../H-x86_64-pc-linux-gnu/nios2-elf/lib/libc.a(lib_a-memcpy.o)
 .comment       0x0000000000000000       0x24 /home/alpha/altera/15.1/nios2eds/bin/gnu/H-x86_64-pc-linux-gnu/bin/../lib/gcc/nios2-elf/4.9.2/../../../../../H-x86_64-pc-linux-gnu/nios2-elf/lib/libc.a(lib_a-memmove.o)
 .comment       0x0000000000000000       0x24 /home/alpha/altera/15.1/nios2eds/bin/gnu/H-x86_64-pc-linux-gnu/bin/../lib/gcc/nios2-elf/4.9.2/../../../../../H-x86_64-pc-linux-gnu/nios2-elf/lib/libc.a(lib_a-reallocr.o)
 .comment       0x0000000000000000       0x24 /home/alpha/altera/15.1/nios2eds/bin/gnu/H-x86_64-pc-linux-gnu/bin/../lib/gcc/nios2-elf/4.9.2/../../../../../H-x86_64-pc-linux-gnu/nios2-elf/lib/libc.a(lib_a-wsetup.o)
 .comment       0x0000000000000000       0x24 /home/alpha/altera/15.1/nios2eds/bin/gnu/H-x86_64-pc-linux-gnu/bin/../lib/gcc/nios2-elf/4.9.2/../../../../../H-x86_64-pc-linux-gnu/nios2-elf/lib/libc.a(lib_a-fflush.o)
 .comment       0x0000000000000000       0x24 /home/alpha/altera/15.1/nios2eds/bin/gnu/H-x86_64-pc-linux-gnu/bin/../lib/gcc/nios2-elf/4.9.2/../../../../../H-x86_64-pc-linux-gnu/nios2-elf/lib/libc.a(lib_a-findfp.o)
 .comment       0x0000000000000000       0x24 /home/alpha/altera/15.1/nios2eds/bin/gnu/H-x86_64-pc-linux-gnu/bin/../lib/gcc/nios2-elf/4.9.2/../../../../../H-x86_64-pc-linux-gnu/nios2-elf/lib/libc.a(lib_a-fwalk.o)
 .comment       0x0000000000000000       0x24 /home/alpha/altera/15.1/nios2eds/bin/gnu/H-x86_64-pc-linux-gnu/bin/../lib/gcc/nios2-elf/4.9.2/../../../../../H-x86_64-pc-linux-gnu/nios2-elf/lib/libc.a(lib_a-makebuf.o)
 .comment       0x0000000000000000       0x24 /home/alpha/altera/15.1/nios2eds/bin/gnu/H-x86_64-pc-linux-gnu/bin/../lib/gcc/nios2-elf/4.9.2/../../../../../H-x86_64-pc-linux-gnu/nios2-elf/lib/libc.a(lib_a-memset.o)
 .comment       0x0000000000000000       0x24 /home/alpha/altera/15.1/nios2eds/bin/gnu/H-x86_64-pc-linux-gnu/bin/../lib/gcc/nios2-elf/4.9.2/../../../../../H-x86_64-pc-linux-gnu/nios2-elf/lib/libc.a(lib_a-stdio.o)
 .comment       0x0000000000000000       0x24 /home/alpha/altera/15.1/nios2eds/bin/gnu/H-x86_64-pc-linux-gnu/bin/../lib/gcc/nios2-elf/4.9.2/../../../../../H-x86_64-pc-linux-gnu/nios2-elf/lib/libc.a(lib_a-writer.o)
 .comment       0x0000000000000000       0x24 /home/alpha/altera/15.1/nios2eds/bin/gnu/H-x86_64-pc-linux-gnu/bin/../lib/gcc/nios2-elf/4.9.2/../../../../../H-x86_64-pc-linux-gnu/nios2-elf/lib/libc.a(closer.o)
 .comment       0x0000000000000000       0x24 /home/alpha/altera/15.1/nios2eds/bin/gnu/H-x86_64-pc-linux-gnu/bin/../lib/gcc/nios2-elf/4.9.2/../../../../../H-x86_64-pc-linux-gnu/nios2-elf/lib/libc.a(lib_a-fclose.o)
 .comment       0x0000000000000000       0x24 /home/alpha/altera/15.1/nios2eds/bin/gnu/H-x86_64-pc-linux-gnu/bin/../lib/gcc/nios2-elf/4.9.2/../../../../../H-x86_64-pc-linux-gnu/nios2-elf/lib/libc.a(lib_a-fstatr.o)
 .comment       0x0000000000000000       0x24 /home/alpha/altera/15.1/nios2eds/bin/gnu/H-x86_64-pc-linux-gnu/bin/../lib/gcc/nios2-elf/4.9.2/../../../../../H-x86_64-pc-linux-gnu/nios2-elf/lib/libc.a(lib_a-isattyr.o)
 .comment       0x0000000000000000       0x24 /home/alpha/altera/15.1/nios2eds/bin/gnu/H-x86_64-pc-linux-gnu/bin/../lib/gcc/nios2-elf/4.9.2/../../../../../H-x86_64-pc-linux-gnu/nios2-elf/lib/libc.a(lib_a-lseekr.o)
 .comment       0x0000000000000000       0x24 /home/alpha/altera/15.1/nios2eds/bin/gnu/H-x86_64-pc-linux-gnu/bin/../lib/gcc/nios2-elf/4.9.2/../../../../../H-x86_64-pc-linux-gnu/nios2-elf/lib/libc.a(lib_a-readr.o)
 .comment       0x0000000000000000       0x24 /home/alpha/altera/15.1/nios2eds/bin/gnu/H-x86_64-pc-linux-gnu/bin/../lib/gcc/nios2-elf/4.9.2/libgcc.a(lib2-divmod.o)
 .comment       0x0000000000000000       0x24 ../recorder_nios_bsp//libucosii_bsp.a(alt_close.o)
 .comment       0x0000000000000000       0x24 ../recorder_nios_bsp//libucosii_bsp.a(alt_dev.o)
 .comment       0x0000000000000000       0x24 ../recorder_nios_bsp//libucosii_bsp.a(alt_errno.o)
 .comment       0x0000000000000000       0x24 ../recorder_nios_bsp//libucosii_bsp.a(alt_fstat.o)
 .comment       0x0000000000000000       0x24 ../recorder_nios_bsp//libucosii_bsp.a(alt_isatty.o)
 .comment       0x0000000000000000       0x24 ../recorder_nios_bsp//libucosii_bsp.a(alt_load.o)
 .comment       0x0000000000000000       0x24 ../recorder_nios_bsp//libucosii_bsp.a(alt_lseek.o)
 .comment       0x0000000000000000       0x24 ../recorder_nios_bsp//libucosii_bsp.a(alt_main.o)
 .comment       0x0000000000000000       0x24 ../recorder_nios_bsp//libucosii_bsp.a(alt_read.o)
 .comment       0x0000000000000000       0x24 ../recorder_nios_bsp//libucosii_bsp.a(alt_release_fd.o)
 .comment       0x0000000000000000       0x24 ../recorder_nios_bsp//libucosii_bsp.a(alt_sbrk.o)
 .comment       0x0000000000000000       0x24 ../recorder_nios_bsp//libucosii_bsp.a(alt_write.o)
 .comment       0x0000000000000000       0x24 ../recorder_nios_bsp//libucosii_bsp.a(alt_env_lock.o)
 .comment       0x0000000000000000       0x24 ../recorder_nios_bsp//libucosii_bsp.a(alt_malloc_lock.o)
 .comment       0x0000000000000000       0x24 ../recorder_nios_bsp//libucosii_bsp.a(os_core.o)
 .comment       0x0000000000000000       0x24 ../recorder_nios_bsp//libucosii_bsp.a(os_dbg.o)
 .comment       0x0000000000000000       0x24 ../recorder_nios_bsp//libucosii_bsp.a(os_flag.o)
 .comment       0x0000000000000000       0x24 ../recorder_nios_bsp//libucosii_bsp.a(os_mem.o)
 .comment       0x0000000000000000       0x24 ../recorder_nios_bsp//libucosii_bsp.a(os_q.o)
 .comment       0x0000000000000000       0x24 ../recorder_nios_bsp//libucosii_bsp.a(os_sem.o)
 .comment       0x0000000000000000       0x24 ../recorder_nios_bsp//libucosii_bsp.a(os_task.o)
 .comment       0x0000000000000000       0x24 ../recorder_nios_bsp//libucosii_bsp.a(os_time.o)
 .comment       0x0000000000000000       0x24 ../recorder_nios_bsp//libucosii_bsp.a(alt_sys_init.o)
 .comment       0x0000000000000000       0x24 ../recorder_nios_bsp//libucosii_bsp.a(altera_avalon_jtag_uart_fd.o)
 .comment       0x0000000000000000       0x24 ../recorder_nios_bsp//libucosii_bsp.a(altera_avalon_jtag_uart_init.o)
 .comment       0x0000000000000000       0x24 ../recorder_nios_bsp//libucosii_bsp.a(altera_avalon_jtag_uart_ioctl.o)
 .comment       0x0000000000000000       0x24 ../recorder_nios_bsp//libucosii_bsp.a(altera_avalon_jtag_uart_read.o)
 .comment       0x0000000000000000       0x24 ../recorder_nios_bsp//libucosii_bsp.a(altera_avalon_jtag_uart_write.o)
 .comment       0x0000000000000000       0x24 ../recorder_nios_bsp//libucosii_bsp.a(altera_avalon_timer_sc.o)
 .comment       0x0000000000000000       0x24 ../recorder_nios_bsp//libucosii_bsp.a(altera_up_avalon_audio.o)
 .comment       0x0000000000000000       0x24 ../recorder_nios_bsp//libucosii_bsp.a(altera_up_avalon_video_pixel_buffer_dma.o)
 .comment       0x0000000000000000       0x24 ../recorder_nios_bsp//libucosii_bsp.a(alt_alarm_start.o)
 .comment       0x0000000000000000       0x24 ../recorder_nios_bsp//libucosii_bsp.a(alt_dcache_flush_all.o)
 .comment       0x0000000000000000       0x24 ../recorder_nios_bsp//libucosii_bsp.a(alt_dev_llist_insert.o)
 .comment       0x0000000000000000       0x24 ../recorder_nios_bsp//libucosii_bsp.a(alt_do_ctors.o)
 .comment       0x0000000000000000       0x24 ../recorder_nios_bsp//libucosii_bsp.a(alt_do_dtors.o)
 .comment       0x0000000000000000       0x24 ../recorder_nios_bsp//libucosii_bsp.a(alt_find_dev.o)
 .comment       0x0000000000000000       0x24 ../recorder_nios_bsp//libucosii_bsp.a(alt_icache_flush_all.o)
 .comment       0x0000000000000000       0x24 ../recorder_nios_bsp//libucosii_bsp.a(alt_io_redirect.o)
 .comment       0x0000000000000000       0x24 ../recorder_nios_bsp//libucosii_bsp.a(alt_irq_register.o)
 .comment       0x0000000000000000       0x24 ../recorder_nios_bsp//libucosii_bsp.a(alt_irq_vars.o)
 .comment       0x0000000000000000       0x24 ../recorder_nios_bsp//libucosii_bsp.a(alt_open.o)
 .comment       0x0000000000000000       0x24 ../recorder_nios_bsp//libucosii_bsp.a(alt_tick.o)
 .comment       0x0000000000000000       0x24 ../recorder_nios_bsp//libucosii_bsp.a(altera_nios2_gen2_irq.o)
 .comment       0x0000000000000000       0x24 ../recorder_nios_bsp//libucosii_bsp.a(os_cpu_c.o)
 .comment       0x0000000000000000       0x24 ../recorder_nios_bsp//libucosii_bsp.a(alt_find_file.o)
 .comment       0x0000000000000000       0x24 ../recorder_nios_bsp//libucosii_bsp.a(alt_get_fd.o)
 .comment       0x0000000000000000       0x24 ../recorder_nios_bsp//libucosii_bsp.a(alt_icache_flush.o)
 .comment       0x0000000000000000       0x24 ../recorder_nios_bsp//libucosii_bsp.a(alt_irq_handler.o)
 .comment       0x0000000000000000       0x24 ../recorder_nios_bsp//libucosii_bsp.a(alt_instruction_exception_entry.o)
 .comment       0x0000000000000000       0x24 /home/alpha/altera/15.1/nios2eds/bin/gnu/H-x86_64-pc-linux-gnu/bin/../lib/gcc/nios2-elf/4.9.2/../../../../../H-x86_64-pc-linux-gnu/nios2-elf/lib/libc.a(lib_a-atexit.o)
 .comment       0x0000000000000000       0x24 /home/alpha/altera/15.1/nios2eds/bin/gnu/H-x86_64-pc-linux-gnu/bin/../lib/gcc/nios2-elf/4.9.2/../../../../../H-x86_64-pc-linux-gnu/nios2-elf/lib/libc.a(lib_a-exit.o)
 .comment       0x0000000000000000       0x24 /home/alpha/altera/15.1/nios2eds/bin/gnu/H-x86_64-pc-linux-gnu/bin/../lib/gcc/nios2-elf/4.9.2/../../../../../H-x86_64-pc-linux-gnu/nios2-elf/lib/libc.a(lib_a-memcmp.o)
 .comment       0x0000000000000000       0x24 /home/alpha/altera/15.1/nios2eds/bin/gnu/H-x86_64-pc-linux-gnu/bin/../lib/gcc/nios2-elf/4.9.2/../../../../../H-x86_64-pc-linux-gnu/nios2-elf/lib/libc.a(lib_a-__atexit.o)
 .comment       0x0000000000000000       0x24 /home/alpha/altera/15.1/nios2eds/bin/gnu/H-x86_64-pc-linux-gnu/bin/../lib/gcc/nios2-elf/4.9.2/../../../../../H-x86_64-pc-linux-gnu/nios2-elf/lib/libc.a(lib_a-__call_atexit.o)
 .comment       0x0000000000000000       0x24 ../recorder_nios_bsp//libucosii_bsp.a(alt_exit.o)

.debug
 *(.debug)

.line
 *(.line)

.debug_srcinfo
 *(.debug_srcinfo)

.debug_sfnames
 *(.debug_sfnames)

.debug_aranges  0x0000000000000000      0xdd0
 *(.debug_aranges)
 .debug_aranges
                0x0000000000000000       0x28 ../recorder_nios_bsp//obj/HAL/src/crt0.o
 .debug_aranges
                0x0000000000000028       0x18 obj/default/LCD/font/arial18.o
 .debug_aranges
                0x0000000000000040       0x18 obj/default/LCD/font/arial22.o
 .debug_aranges
                0x0000000000000058       0x18 obj/default/LCD/font/arial40.o
 .debug_aranges
                0x0000000000000070       0x20 obj/default/LCD/Color.o
 .debug_aranges
                0x0000000000000090       0x20 obj/default/LCD/lcd_core.o
 .debug_aranges
                0x00000000000000b0       0x30 obj/default/audio/audio_core.o
 .debug_aranges
                0x00000000000000e0       0x28 obj/default/main.o
 .debug_aranges
                0x0000000000000108       0x50 /home/alpha/altera/15.1/nios2eds/bin/gnu/H-x86_64-pc-linux-gnu/bin/../lib/gcc/nios2-elf/4.9.2/../../../../../H-x86_64-pc-linux-gnu/nios2-elf/lib/libstdc++.a(class_type_info.o)
 .debug_aranges
                0x0000000000000158       0x20 /home/alpha/altera/15.1/nios2eds/bin/gnu/H-x86_64-pc-linux-gnu/bin/../lib/gcc/nios2-elf/4.9.2/../../../../../H-x86_64-pc-linux-gnu/nios2-elf/lib/libstdc++.a(del_op.o)
 .debug_aranges
                0x0000000000000178       0x40 /home/alpha/altera/15.1/nios2eds/bin/gnu/H-x86_64-pc-linux-gnu/bin/../lib/gcc/nios2-elf/4.9.2/../../../../../H-x86_64-pc-linux-gnu/nios2-elf/lib/libstdc++.a(si_class_type_info.o)
 .debug_aranges
                0x00000000000001b8       0x48 /home/alpha/altera/15.1/nios2eds/bin/gnu/H-x86_64-pc-linux-gnu/bin/../lib/gcc/nios2-elf/4.9.2/../../../../../H-x86_64-pc-linux-gnu/nios2-elf/lib/libstdc++.a(tinfo.o)
 .debug_aranges
                0x0000000000000200       0x28 /home/alpha/altera/15.1/nios2eds/bin/gnu/H-x86_64-pc-linux-gnu/bin/../lib/gcc/nios2-elf/4.9.2/../../../../../H-x86_64-pc-linux-gnu/nios2-elf/lib/libc.a(lib_a-malloc.o)
 .debug_aranges
                0x0000000000000228       0x20 /home/alpha/altera/15.1/nios2eds/bin/gnu/H-x86_64-pc-linux-gnu/bin/../lib/gcc/nios2-elf/4.9.2/../../../../../H-x86_64-pc-linux-gnu/nios2-elf/lib/libc.a(lib_a-mallocr.o)
 .debug_aranges
                0x0000000000000248       0x28 /home/alpha/altera/15.1/nios2eds/bin/gnu/H-x86_64-pc-linux-gnu/bin/../lib/gcc/nios2-elf/4.9.2/../../../../../H-x86_64-pc-linux-gnu/nios2-elf/lib/libc.a(lib_a-puts.o)
 .debug_aranges
                0x0000000000000270       0x20 /home/alpha/altera/15.1/nios2eds/bin/gnu/H-x86_64-pc-linux-gnu/bin/../lib/gcc/nios2-elf/4.9.2/../../../../../H-x86_64-pc-linux-gnu/nios2-elf/lib/libc.a(lib_a-sbrkr.o)
 .debug_aranges
                0x0000000000000290       0x20 /home/alpha/altera/15.1/nios2eds/bin/gnu/H-x86_64-pc-linux-gnu/bin/../lib/gcc/nios2-elf/4.9.2/../../../../../H-x86_64-pc-linux-gnu/nios2-elf/lib/libc.a(lib_a-strcmp.o)
 .debug_aranges
                0x00000000000002b0       0x20 /home/alpha/altera/15.1/nios2eds/bin/gnu/H-x86_64-pc-linux-gnu/bin/../lib/gcc/nios2-elf/4.9.2/../../../../../H-x86_64-pc-linux-gnu/nios2-elf/lib/libc.a(lib_a-strlen.o)
 .debug_aranges
                0x00000000000002d0       0x28 /home/alpha/altera/15.1/nios2eds/bin/gnu/H-x86_64-pc-linux-gnu/bin/../lib/gcc/nios2-elf/4.9.2/../../../../../H-x86_64-pc-linux-gnu/nios2-elf/lib/libc.a(lib_a-freer.o)
 .debug_aranges
                0x00000000000002f8       0x20 /home/alpha/altera/15.1/nios2eds/bin/gnu/H-x86_64-pc-linux-gnu/bin/../lib/gcc/nios2-elf/4.9.2/../../../../../H-x86_64-pc-linux-gnu/nios2-elf/lib/libc.a(lib_a-fvwrite.o)
 .debug_aranges
                0x0000000000000318       0x18 /home/alpha/altera/15.1/nios2eds/bin/gnu/H-x86_64-pc-linux-gnu/bin/../lib/gcc/nios2-elf/4.9.2/../../../../../H-x86_64-pc-linux-gnu/nios2-elf/lib/libc.a(lib_a-impure.o)
 .debug_aranges
                0x0000000000000330       0x18 /home/alpha/altera/15.1/nios2eds/bin/gnu/H-x86_64-pc-linux-gnu/bin/../lib/gcc/nios2-elf/4.9.2/../../../../../H-x86_64-pc-linux-gnu/nios2-elf/lib/libc.a(lib_a-int_errno.o)
 .debug_aranges
                0x0000000000000348       0x20 /home/alpha/altera/15.1/nios2eds/bin/gnu/H-x86_64-pc-linux-gnu/bin/../lib/gcc/nios2-elf/4.9.2/../../../../../H-x86_64-pc-linux-gnu/nios2-elf/lib/libc.a(lib_a-memchr.o)
 .debug_aranges
                0x0000000000000368       0x20 /home/alpha/altera/15.1/nios2eds/bin/gnu/H-x86_64-pc-linux-gnu/bin/../lib/gcc/nios2-elf/4.9.2/../../../../../H-x86_64-pc-linux-gnu/nios2-elf/lib/libc.a(lib_a-memcpy.o)
 .debug_aranges
                0x0000000000000388       0x20 /home/alpha/altera/15.1/nios2eds/bin/gnu/H-x86_64-pc-linux-gnu/bin/../lib/gcc/nios2-elf/4.9.2/../../../../../H-x86_64-pc-linux-gnu/nios2-elf/lib/libc.a(lib_a-memmove.o)
 .debug_aranges
                0x00000000000003a8       0x20 /home/alpha/altera/15.1/nios2eds/bin/gnu/H-x86_64-pc-linux-gnu/bin/../lib/gcc/nios2-elf/4.9.2/../../../../../H-x86_64-pc-linux-gnu/nios2-elf/lib/libc.a(lib_a-reallocr.o)
 .debug_aranges
                0x00000000000003c8       0x20 /home/alpha/altera/15.1/nios2eds/bin/gnu/H-x86_64-pc-linux-gnu/bin/../lib/gcc/nios2-elf/4.9.2/../../../../../H-x86_64-pc-linux-gnu/nios2-elf/lib/libc.a(lib_a-wsetup.o)
 .debug_aranges
                0x00000000000003e8       0x30 /home/alpha/altera/15.1/nios2eds/bin/gnu/H-x86_64-pc-linux-gnu/bin/../lib/gcc/nios2-elf/4.9.2/../../../../../H-x86_64-pc-linux-gnu/nios2-elf/lib/libc.a(lib_a-fflush.o)
 .debug_aranges
                0x0000000000000418       0x88 /home/alpha/altera/15.1/nios2eds/bin/gnu/H-x86_64-pc-linux-gnu/bin/../lib/gcc/nios2-elf/4.9.2/../../../../../H-x86_64-pc-linux-gnu/nios2-elf/lib/libc.a(lib_a-findfp.o)
 .debug_aranges
                0x00000000000004a0       0x28 /home/alpha/altera/15.1/nios2eds/bin/gnu/H-x86_64-pc-linux-gnu/bin/../lib/gcc/nios2-elf/4.9.2/../../../../../H-x86_64-pc-linux-gnu/nios2-elf/lib/libc.a(lib_a-fwalk.o)
 .debug_aranges
                0x00000000000004c8       0x20 /home/alpha/altera/15.1/nios2eds/bin/gnu/H-x86_64-pc-linux-gnu/bin/../lib/gcc/nios2-elf/4.9.2/../../../../../H-x86_64-pc-linux-gnu/nios2-elf/lib/libc.a(lib_a-makebuf.o)
 .debug_aranges
                0x00000000000004e8       0x20 /home/alpha/altera/15.1/nios2eds/bin/gnu/H-x86_64-pc-linux-gnu/bin/../lib/gcc/nios2-elf/4.9.2/../../../../../H-x86_64-pc-linux-gnu/nios2-elf/lib/libc.a(lib_a-memset.o)
 .debug_aranges
                0x0000000000000508       0x40 /home/alpha/altera/15.1/nios2eds/bin/gnu/H-x86_64-pc-linux-gnu/bin/../lib/gcc/nios2-elf/4.9.2/../../../../../H-x86_64-pc-linux-gnu/nios2-elf/lib/libc.a(lib_a-stdio.o)
 .debug_aranges
                0x0000000000000548       0x20 /home/alpha/altera/15.1/nios2eds/bin/gnu/H-x86_64-pc-linux-gnu/bin/../lib/gcc/nios2-elf/4.9.2/../../../../../H-x86_64-pc-linux-gnu/nios2-elf/lib/libc.a(lib_a-writer.o)
 .debug_aranges
                0x0000000000000568       0x20 /home/alpha/altera/15.1/nios2eds/bin/gnu/H-x86_64-pc-linux-gnu/bin/../lib/gcc/nios2-elf/4.9.2/../../../../../H-x86_64-pc-linux-gnu/nios2-elf/lib/libc.a(closer.o)
 .debug_aranges
                0x0000000000000588       0x28 /home/alpha/altera/15.1/nios2eds/bin/gnu/H-x86_64-pc-linux-gnu/bin/../lib/gcc/nios2-elf/4.9.2/../../../../../H-x86_64-pc-linux-gnu/nios2-elf/lib/libc.a(lib_a-fclose.o)
 .debug_aranges
                0x00000000000005b0       0x20 /home/alpha/altera/15.1/nios2eds/bin/gnu/H-x86_64-pc-linux-gnu/bin/../lib/gcc/nios2-elf/4.9.2/../../../../../H-x86_64-pc-linux-gnu/nios2-elf/lib/libc.a(lib_a-fstatr.o)
 .debug_aranges
                0x00000000000005d0       0x20 /home/alpha/altera/15.1/nios2eds/bin/gnu/H-x86_64-pc-linux-gnu/bin/../lib/gcc/nios2-elf/4.9.2/../../../../../H-x86_64-pc-linux-gnu/nios2-elf/lib/libc.a(lib_a-isattyr.o)
 .debug_aranges
                0x00000000000005f0       0x20 /home/alpha/altera/15.1/nios2eds/bin/gnu/H-x86_64-pc-linux-gnu/bin/../lib/gcc/nios2-elf/4.9.2/../../../../../H-x86_64-pc-linux-gnu/nios2-elf/lib/libc.a(lib_a-lseekr.o)
 .debug_aranges
                0x0000000000000610       0x20 /home/alpha/altera/15.1/nios2eds/bin/gnu/H-x86_64-pc-linux-gnu/bin/../lib/gcc/nios2-elf/4.9.2/../../../../../H-x86_64-pc-linux-gnu/nios2-elf/lib/libc.a(lib_a-readr.o)
 .debug_aranges
                0x0000000000000630       0x20 /home/alpha/altera/15.1/nios2eds/bin/gnu/H-x86_64-pc-linux-gnu/bin/../lib/gcc/nios2-elf/4.9.2/libgcc.a(lib2-divmod.o)
 .debug_aranges
                0x0000000000000650       0x20 ../recorder_nios_bsp//libucosii_bsp.a(alt_close.o)
 .debug_aranges
                0x0000000000000670       0x20 ../recorder_nios_bsp//libucosii_bsp.a(alt_dev.o)
 .debug_aranges
                0x0000000000000690       0x18 ../recorder_nios_bsp//libucosii_bsp.a(alt_errno.o)
 .debug_aranges
                0x00000000000006a8       0x20 ../recorder_nios_bsp//libucosii_bsp.a(alt_fstat.o)
 .debug_aranges
                0x00000000000006c8       0x20 ../recorder_nios_bsp//libucosii_bsp.a(alt_isatty.o)
 .debug_aranges
                0x00000000000006e8       0x20 ../recorder_nios_bsp//libucosii_bsp.a(alt_load.o)
 .debug_aranges
                0x0000000000000708       0x20 ../recorder_nios_bsp//libucosii_bsp.a(alt_lseek.o)
 .debug_aranges
                0x0000000000000728       0x20 ../recorder_nios_bsp//libucosii_bsp.a(alt_main.o)
 .debug_aranges
                0x0000000000000748       0x20 ../recorder_nios_bsp//libucosii_bsp.a(alt_read.o)
 .debug_aranges
                0x0000000000000768       0x20 ../recorder_nios_bsp//libucosii_bsp.a(alt_release_fd.o)
 .debug_aranges
                0x0000000000000788       0x20 ../recorder_nios_bsp//libucosii_bsp.a(alt_sbrk.o)
 .debug_aranges
                0x00000000000007a8       0x20 ../recorder_nios_bsp//libucosii_bsp.a(alt_write.o)
 .debug_aranges
                0x00000000000007c8       0x20 ../recorder_nios_bsp//libucosii_bsp.a(alt_env_lock.o)
 .debug_aranges
                0x00000000000007e8       0x20 ../recorder_nios_bsp//libucosii_bsp.a(alt_malloc_lock.o)
 .debug_aranges
                0x0000000000000808       0x20 ../recorder_nios_bsp//libucosii_bsp.a(os_core.o)
 .debug_aranges
                0x0000000000000828       0x20 ../recorder_nios_bsp//libucosii_bsp.a(os_dbg.o)
 .debug_aranges
                0x0000000000000848       0x20 ../recorder_nios_bsp//libucosii_bsp.a(os_flag.o)
 .debug_aranges
                0x0000000000000868       0x20 ../recorder_nios_bsp//libucosii_bsp.a(os_mem.o)
 .debug_aranges
                0x0000000000000888       0x20 ../recorder_nios_bsp//libucosii_bsp.a(os_q.o)
 .debug_aranges
                0x00000000000008a8       0x20 ../recorder_nios_bsp//libucosii_bsp.a(os_sem.o)
 .debug_aranges
                0x00000000000008c8       0x20 ../recorder_nios_bsp//libucosii_bsp.a(os_task.o)
 .debug_aranges
                0x00000000000008e8       0x20 ../recorder_nios_bsp//libucosii_bsp.a(os_time.o)
 .debug_aranges
                0x0000000000000908       0x20 ../recorder_nios_bsp//libucosii_bsp.a(alt_sys_init.o)
 .debug_aranges
                0x0000000000000928       0x20 ../recorder_nios_bsp//libucosii_bsp.a(altera_avalon_jtag_uart_fd.o)
 .debug_aranges
                0x0000000000000948       0x20 ../recorder_nios_bsp//libucosii_bsp.a(altera_avalon_jtag_uart_init.o)
 .debug_aranges
                0x0000000000000968       0x20 ../recorder_nios_bsp//libucosii_bsp.a(altera_avalon_jtag_uart_ioctl.o)
 .debug_aranges
                0x0000000000000988       0x20 ../recorder_nios_bsp//libucosii_bsp.a(altera_avalon_jtag_uart_read.o)
 .debug_aranges
                0x00000000000009a8       0x20 ../recorder_nios_bsp//libucosii_bsp.a(altera_avalon_jtag_uart_write.o)
 .debug_aranges
                0x00000000000009c8       0x20 ../recorder_nios_bsp//libucosii_bsp.a(altera_avalon_timer_sc.o)
 .debug_aranges
                0x00000000000009e8       0x20 ../recorder_nios_bsp//libucosii_bsp.a(altera_up_avalon_audio.o)
 .debug_aranges
                0x0000000000000a08       0x20 ../recorder_nios_bsp//libucosii_bsp.a(altera_up_avalon_video_pixel_buffer_dma.o)
 .debug_aranges
                0x0000000000000a28       0x20 ../recorder_nios_bsp//libucosii_bsp.a(alt_alarm_start.o)
 .debug_aranges
                0x0000000000000a48       0x20 ../recorder_nios_bsp//libucosii_bsp.a(alt_dcache_flush_all.o)
 .debug_aranges
                0x0000000000000a68       0x20 ../recorder_nios_bsp//libucosii_bsp.a(alt_dev_llist_insert.o)
 .debug_aranges
                0x0000000000000a88       0x20 ../recorder_nios_bsp//libucosii_bsp.a(alt_do_ctors.o)
 .debug_aranges
                0x0000000000000aa8       0x20 ../recorder_nios_bsp//libucosii_bsp.a(alt_do_dtors.o)
 .debug_aranges
                0x0000000000000ac8       0x20 ../recorder_nios_bsp//libucosii_bsp.a(alt_find_dev.o)
 .debug_aranges
                0x0000000000000ae8       0x20 ../recorder_nios_bsp//libucosii_bsp.a(alt_icache_flush_all.o)
 .debug_aranges
                0x0000000000000b08       0x20 ../recorder_nios_bsp//libucosii_bsp.a(alt_io_redirect.o)
 .debug_aranges
                0x0000000000000b28       0x20 ../recorder_nios_bsp//libucosii_bsp.a(alt_irq_register.o)
 .debug_aranges
                0x0000000000000b48       0x18 ../recorder_nios_bsp//libucosii_bsp.a(alt_irq_vars.o)
 .debug_aranges
                0x0000000000000b60       0x20 ../recorder_nios_bsp//libucosii_bsp.a(alt_open.o)
 .debug_aranges
                0x0000000000000b80       0x20 ../recorder_nios_bsp//libucosii_bsp.a(alt_tick.o)
 .debug_aranges
                0x0000000000000ba0       0x20 ../recorder_nios_bsp//libucosii_bsp.a(altera_nios2_gen2_irq.o)
 .debug_aranges
                0x0000000000000bc0       0x20 ../recorder_nios_bsp//libucosii_bsp.a(os_cpu_a.o)
 .debug_aranges
                0x0000000000000be0       0x20 ../recorder_nios_bsp//libucosii_bsp.a(os_cpu_c.o)
 .debug_aranges
                0x0000000000000c00       0x20 ../recorder_nios_bsp//libucosii_bsp.a(alt_find_file.o)
 .debug_aranges
                0x0000000000000c20       0x20 ../recorder_nios_bsp//libucosii_bsp.a(alt_get_fd.o)
 .debug_aranges
                0x0000000000000c40       0x20 ../recorder_nios_bsp//libucosii_bsp.a(alt_icache_flush.o)
 .debug_aranges
                0x0000000000000c60       0x30 ../recorder_nios_bsp//libucosii_bsp.a(alt_irq_entry.o)
 .debug_aranges
                0x0000000000000c90       0x20 ../recorder_nios_bsp//libucosii_bsp.a(alt_irq_handler.o)
 .debug_aranges
                0x0000000000000cb0       0x38 ../recorder_nios_bsp//libucosii_bsp.a(alt_exception_entry.o)
 .debug_aranges
                0x0000000000000ce8       0x28 ../recorder_nios_bsp//libucosii_bsp.a(alt_instruction_exception_entry.o)
 .debug_aranges
                0x0000000000000d10       0x20 /home/alpha/altera/15.1/nios2eds/bin/gnu/H-x86_64-pc-linux-gnu/bin/../lib/gcc/nios2-elf/4.9.2/../../../../../H-x86_64-pc-linux-gnu/nios2-elf/lib/libc.a(lib_a-atexit.o)
 .debug_aranges
                0x0000000000000d30       0x20 /home/alpha/altera/15.1/nios2eds/bin/gnu/H-x86_64-pc-linux-gnu/bin/../lib/gcc/nios2-elf/4.9.2/../../../../../H-x86_64-pc-linux-gnu/nios2-elf/lib/libc.a(lib_a-exit.o)
 .debug_aranges
                0x0000000000000d50       0x20 /home/alpha/altera/15.1/nios2eds/bin/gnu/H-x86_64-pc-linux-gnu/bin/../lib/gcc/nios2-elf/4.9.2/../../../../../H-x86_64-pc-linux-gnu/nios2-elf/lib/libc.a(lib_a-memcmp.o)
 .debug_aranges
                0x0000000000000d70       0x20 /home/alpha/altera/15.1/nios2eds/bin/gnu/H-x86_64-pc-linux-gnu/bin/../lib/gcc/nios2-elf/4.9.2/../../../../../H-x86_64-pc-linux-gnu/nios2-elf/lib/libc.a(lib_a-__atexit.o)
 .debug_aranges
                0x0000000000000d90       0x20 /home/alpha/altera/15.1/nios2eds/bin/gnu/H-x86_64-pc-linux-gnu/bin/../lib/gcc/nios2-elf/4.9.2/../../../../../H-x86_64-pc-linux-gnu/nios2-elf/lib/libc.a(lib_a-__call_atexit.o)
 .debug_aranges
                0x0000000000000db0       0x20 ../recorder_nios_bsp//libucosii_bsp.a(alt_exit.o)

.debug_pubnames
 *(.debug_pubnames)

.debug_info     0x0000000000000000    0x2979c
 *(.debug_info .gnu.linkonce.wi.*)
 .debug_info    0x0000000000000000       0x74 ../recorder_nios_bsp//obj/HAL/src/crt0.o
 .debug_info    0x0000000000000074       0x9f obj/default/LCD/font/arial18.o
 .debug_info    0x0000000000000113       0x9f obj/default/LCD/font/arial22.o
 .debug_info    0x00000000000001b2       0x9f obj/default/LCD/font/arial40.o
 .debug_info    0x0000000000000251      0x16b obj/default/LCD/Color.o
 .debug_info    0x00000000000003bc     0x1487 obj/default/LCD/lcd_core.o
 .debug_info    0x0000000000001843     0x251b obj/default/audio/audio_core.o
 .debug_info    0x0000000000003d5e     0x2319 obj/default/main.o
 .debug_info    0x0000000000006077      0xa75 /home/alpha/altera/15.1/nios2eds/bin/gnu/H-x86_64-pc-linux-gnu/bin/../lib/gcc/nios2-elf/4.9.2/../../../../../H-x86_64-pc-linux-gnu/nios2-elf/lib/libstdc++.a(class_type_info.o)
 .debug_info    0x0000000000006aec      0x43d /home/alpha/altera/15.1/nios2eds/bin/gnu/H-x86_64-pc-linux-gnu/bin/../lib/gcc/nios2-elf/4.9.2/../../../../../H-x86_64-pc-linux-gnu/nios2-elf/lib/libstdc++.a(del_op.o)
 .debug_info    0x0000000000006f29      0x8b9 /home/alpha/altera/15.1/nios2eds/bin/gnu/H-x86_64-pc-linux-gnu/bin/../lib/gcc/nios2-elf/4.9.2/../../../../../H-x86_64-pc-linux-gnu/nios2-elf/lib/libstdc++.a(si_class_type_info.o)
 .debug_info    0x00000000000077e2      0x4b7 /home/alpha/altera/15.1/nios2eds/bin/gnu/H-x86_64-pc-linux-gnu/bin/../lib/gcc/nios2-elf/4.9.2/../../../../../H-x86_64-pc-linux-gnu/nios2-elf/lib/libstdc++.a(tinfo.o)
 .debug_info    0x0000000000007c99      0x920 /home/alpha/altera/15.1/nios2eds/bin/gnu/H-x86_64-pc-linux-gnu/bin/../lib/gcc/nios2-elf/4.9.2/../../../../../H-x86_64-pc-linux-gnu/nios2-elf/lib/libc.a(lib_a-malloc.o)
 .debug_info    0x00000000000085b9      0xd81 /home/alpha/altera/15.1/nios2eds/bin/gnu/H-x86_64-pc-linux-gnu/bin/../lib/gcc/nios2-elf/4.9.2/../../../../../H-x86_64-pc-linux-gnu/nios2-elf/lib/libc.a(lib_a-mallocr.o)
 .debug_info    0x000000000000933a      0xa21 /home/alpha/altera/15.1/nios2eds/bin/gnu/H-x86_64-pc-linux-gnu/bin/../lib/gcc/nios2-elf/4.9.2/../../../../../H-x86_64-pc-linux-gnu/nios2-elf/lib/libc.a(lib_a-puts.o)
 .debug_info    0x0000000000009d5b      0x8ff /home/alpha/altera/15.1/nios2eds/bin/gnu/H-x86_64-pc-linux-gnu/bin/../lib/gcc/nios2-elf/4.9.2/../../../../../H-x86_64-pc-linux-gnu/nios2-elf/lib/libc.a(lib_a-sbrkr.o)
 .debug_info    0x000000000000a65a       0xdd /home/alpha/altera/15.1/nios2eds/bin/gnu/H-x86_64-pc-linux-gnu/bin/../lib/gcc/nios2-elf/4.9.2/../../../../../H-x86_64-pc-linux-gnu/nios2-elf/lib/libc.a(lib_a-strcmp.o)
 .debug_info    0x000000000000a737       0xdb /home/alpha/altera/15.1/nios2eds/bin/gnu/H-x86_64-pc-linux-gnu/bin/../lib/gcc/nios2-elf/4.9.2/../../../../../H-x86_64-pc-linux-gnu/nios2-elf/lib/libc.a(lib_a-strlen.o)
 .debug_info    0x000000000000a812      0xc12 /home/alpha/altera/15.1/nios2eds/bin/gnu/H-x86_64-pc-linux-gnu/bin/../lib/gcc/nios2-elf/4.9.2/../../../../../H-x86_64-pc-linux-gnu/nios2-elf/lib/libc.a(lib_a-freer.o)
 .debug_info    0x000000000000b424      0xc32 /home/alpha/altera/15.1/nios2eds/bin/gnu/H-x86_64-pc-linux-gnu/bin/../lib/gcc/nios2-elf/4.9.2/../../../../../H-x86_64-pc-linux-gnu/nios2-elf/lib/libc.a(lib_a-fvwrite.o)
 .debug_info    0x000000000000c056      0x89f /home/alpha/altera/15.1/nios2eds/bin/gnu/H-x86_64-pc-linux-gnu/bin/../lib/gcc/nios2-elf/4.9.2/../../../../../H-x86_64-pc-linux-gnu/nios2-elf/lib/libc.a(lib_a-impure.o)
 .debug_info    0x000000000000c8f5       0x83 /home/alpha/altera/15.1/nios2eds/bin/gnu/H-x86_64-pc-linux-gnu/bin/../lib/gcc/nios2-elf/4.9.2/../../../../../H-x86_64-pc-linux-gnu/nios2-elf/lib/libc.a(lib_a-int_errno.o)
 .debug_info    0x000000000000c978      0x12b /home/alpha/altera/15.1/nios2eds/bin/gnu/H-x86_64-pc-linux-gnu/bin/../lib/gcc/nios2-elf/4.9.2/../../../../../H-x86_64-pc-linux-gnu/nios2-elf/lib/libc.a(lib_a-memchr.o)
 .debug_info    0x000000000000caa3      0x133 /home/alpha/altera/15.1/nios2eds/bin/gnu/H-x86_64-pc-linux-gnu/bin/../lib/gcc/nios2-elf/4.9.2/../../../../../H-x86_64-pc-linux-gnu/nios2-elf/lib/libc.a(lib_a-memcpy.o)
 .debug_info    0x000000000000cbd6      0x133 /home/alpha/altera/15.1/nios2eds/bin/gnu/H-x86_64-pc-linux-gnu/bin/../lib/gcc/nios2-elf/4.9.2/../../../../../H-x86_64-pc-linux-gnu/nios2-elf/lib/libc.a(lib_a-memmove.o)
 .debug_info    0x000000000000cd09      0xcac /home/alpha/altera/15.1/nios2eds/bin/gnu/H-x86_64-pc-linux-gnu/bin/../lib/gcc/nios2-elf/4.9.2/../../../../../H-x86_64-pc-linux-gnu/nios2-elf/lib/libc.a(lib_a-reallocr.o)
 .debug_info    0x000000000000d9b5      0x946 /home/alpha/altera/15.1/nios2eds/bin/gnu/H-x86_64-pc-linux-gnu/bin/../lib/gcc/nios2-elf/4.9.2/../../../../../H-x86_64-pc-linux-gnu/nios2-elf/lib/libc.a(lib_a-wsetup.o)
 .debug_info    0x000000000000e2fb      0xac2 /home/alpha/altera/15.1/nios2eds/bin/gnu/H-x86_64-pc-linux-gnu/bin/../lib/gcc/nios2-elf/4.9.2/../../../../../H-x86_64-pc-linux-gnu/nios2-elf/lib/libc.a(lib_a-fflush.o)
 .debug_info    0x000000000000edbd      0xda3 /home/alpha/altera/15.1/nios2eds/bin/gnu/H-x86_64-pc-linux-gnu/bin/../lib/gcc/nios2-elf/4.9.2/../../../../../H-x86_64-pc-linux-gnu/nios2-elf/lib/libc.a(lib_a-findfp.o)
 .debug_info    0x000000000000fb60      0x9a9 /home/alpha/altera/15.1/nios2eds/bin/gnu/H-x86_64-pc-linux-gnu/bin/../lib/gcc/nios2-elf/4.9.2/../../../../../H-x86_64-pc-linux-gnu/nios2-elf/lib/libc.a(lib_a-fwalk.o)
 .debug_info    0x0000000000010509      0xb04 /home/alpha/altera/15.1/nios2eds/bin/gnu/H-x86_64-pc-linux-gnu/bin/../lib/gcc/nios2-elf/4.9.2/../../../../../H-x86_64-pc-linux-gnu/nios2-elf/lib/libc.a(lib_a-makebuf.o)
 .debug_info    0x000000000001100d      0x11a /home/alpha/altera/15.1/nios2eds/bin/gnu/H-x86_64-pc-linux-gnu/bin/../lib/gcc/nios2-elf/4.9.2/../../../../../H-x86_64-pc-linux-gnu/nios2-elf/lib/libc.a(lib_a-memset.o)
 .debug_info    0x0000000000011127      0xb93 /home/alpha/altera/15.1/nios2eds/bin/gnu/H-x86_64-pc-linux-gnu/bin/../lib/gcc/nios2-elf/4.9.2/../../../../../H-x86_64-pc-linux-gnu/nios2-elf/lib/libc.a(lib_a-stdio.o)
 .debug_info    0x0000000000011cba      0x931 /home/alpha/altera/15.1/nios2eds/bin/gnu/H-x86_64-pc-linux-gnu/bin/../lib/gcc/nios2-elf/4.9.2/../../../../../H-x86_64-pc-linux-gnu/nios2-elf/lib/libc.a(lib_a-writer.o)
 .debug_info    0x00000000000125eb      0x8de /home/alpha/altera/15.1/nios2eds/bin/gnu/H-x86_64-pc-linux-gnu/bin/../lib/gcc/nios2-elf/4.9.2/../../../../../H-x86_64-pc-linux-gnu/nios2-elf/lib/libc.a(closer.o)
 .debug_info    0x0000000000012ec9      0xa33 /home/alpha/altera/15.1/nios2eds/bin/gnu/H-x86_64-pc-linux-gnu/bin/../lib/gcc/nios2-elf/4.9.2/../../../../../H-x86_64-pc-linux-gnu/nios2-elf/lib/libc.a(lib_a-fclose.o)
 .debug_info    0x00000000000138fc      0xa61 /home/alpha/altera/15.1/nios2eds/bin/gnu/H-x86_64-pc-linux-gnu/bin/../lib/gcc/nios2-elf/4.9.2/../../../../../H-x86_64-pc-linux-gnu/nios2-elf/lib/libc.a(lib_a-fstatr.o)
 .debug_info    0x000000000001435d      0x8de /home/alpha/altera/15.1/nios2eds/bin/gnu/H-x86_64-pc-linux-gnu/bin/../lib/gcc/nios2-elf/4.9.2/../../../../../H-x86_64-pc-linux-gnu/nios2-elf/lib/libc.a(lib_a-isattyr.o)
 .debug_info    0x0000000000014c3b      0x91f /home/alpha/altera/15.1/nios2eds/bin/gnu/H-x86_64-pc-linux-gnu/bin/../lib/gcc/nios2-elf/4.9.2/../../../../../H-x86_64-pc-linux-gnu/nios2-elf/lib/libc.a(lib_a-lseekr.o)
 .debug_info    0x000000000001555a      0x92a /home/alpha/altera/15.1/nios2eds/bin/gnu/H-x86_64-pc-linux-gnu/bin/../lib/gcc/nios2-elf/4.9.2/../../../../../H-x86_64-pc-linux-gnu/nios2-elf/lib/libc.a(lib_a-readr.o)
 .debug_info    0x0000000000015e84      0x234 /home/alpha/altera/15.1/nios2eds/bin/gnu/H-x86_64-pc-linux-gnu/bin/../lib/gcc/nios2-elf/4.9.2/libgcc.a(lib2-divmod.o)
 .debug_info    0x00000000000160b8      0x364 ../recorder_nios_bsp//libucosii_bsp.a(alt_close.o)
 .debug_info    0x000000000001641c      0x594 ../recorder_nios_bsp//libucosii_bsp.a(alt_dev.o)
 .debug_info    0x00000000000169b0       0x9f ../recorder_nios_bsp//libucosii_bsp.a(alt_errno.o)
 .debug_info    0x0000000000016a4f      0x4cb ../recorder_nios_bsp//libucosii_bsp.a(alt_fstat.o)
 .debug_info    0x0000000000016f1a      0x4ce ../recorder_nios_bsp//libucosii_bsp.a(alt_isatty.o)
 .debug_info    0x00000000000173e8      0x13e ../recorder_nios_bsp//libucosii_bsp.a(alt_load.o)
 .debug_info    0x0000000000017526      0x395 ../recorder_nios_bsp//libucosii_bsp.a(alt_lseek.o)
 .debug_info    0x00000000000178bb      0x27c ../recorder_nios_bsp//libucosii_bsp.a(alt_main.o)
 .debug_info    0x0000000000017b37      0x4f3 ../recorder_nios_bsp//libucosii_bsp.a(alt_read.o)
 .debug_info    0x000000000001802a      0x308 ../recorder_nios_bsp//libucosii_bsp.a(alt_release_fd.o)
 .debug_info    0x0000000000018332      0x1cb ../recorder_nios_bsp//libucosii_bsp.a(alt_sbrk.o)
 .debug_info    0x00000000000184fd      0x4fa ../recorder_nios_bsp//libucosii_bsp.a(alt_write.o)
 .debug_info    0x00000000000189f7      0xc76 ../recorder_nios_bsp//libucosii_bsp.a(alt_env_lock.o)
 .debug_info    0x000000000001966d      0xdbc ../recorder_nios_bsp//libucosii_bsp.a(alt_malloc_lock.o)
 .debug_info    0x000000000001a429     0x161c ../recorder_nios_bsp//libucosii_bsp.a(os_core.o)
 .debug_info    0x000000000001ba45      0xab7 ../recorder_nios_bsp//libucosii_bsp.a(os_dbg.o)
 .debug_info    0x000000000001c4fc      0xfab ../recorder_nios_bsp//libucosii_bsp.a(os_flag.o)
 .debug_info    0x000000000001d4a7      0x689 ../recorder_nios_bsp//libucosii_bsp.a(os_mem.o)
 .debug_info    0x000000000001db30      0xdb2 ../recorder_nios_bsp//libucosii_bsp.a(os_q.o)
 .debug_info    0x000000000001e8e2      0xa13 ../recorder_nios_bsp//libucosii_bsp.a(os_sem.o)
 .debug_info    0x000000000001f2f5     0x1126 ../recorder_nios_bsp//libucosii_bsp.a(os_task.o)
 .debug_info    0x000000000002041b      0x6f8 ../recorder_nios_bsp//libucosii_bsp.a(os_time.o)
 .debug_info    0x0000000000020b13      0x7f7 ../recorder_nios_bsp//libucosii_bsp.a(alt_sys_init.o)
 .debug_info    0x000000000002130a      0x68a ../recorder_nios_bsp//libucosii_bsp.a(altera_avalon_jtag_uart_fd.o)
 .debug_info    0x0000000000021994      0x6d7 ../recorder_nios_bsp//libucosii_bsp.a(altera_avalon_jtag_uart_init.o)
 .debug_info    0x000000000002206b      0x3dc ../recorder_nios_bsp//libucosii_bsp.a(altera_avalon_jtag_uart_ioctl.o)
 .debug_info    0x0000000000022447      0x58e ../recorder_nios_bsp//libucosii_bsp.a(altera_avalon_jtag_uart_read.o)
 .debug_info    0x00000000000229d5      0x588 ../recorder_nios_bsp//libucosii_bsp.a(altera_avalon_jtag_uart_write.o)
 .debug_info    0x0000000000022f5d      0x242 ../recorder_nios_bsp//libucosii_bsp.a(altera_avalon_timer_sc.o)
 .debug_info    0x000000000002319f      0x7d9 ../recorder_nios_bsp//libucosii_bsp.a(altera_up_avalon_audio.o)
 .debug_info    0x0000000000023978      0xada ../recorder_nios_bsp//libucosii_bsp.a(altera_up_avalon_video_pixel_buffer_dma.o)
 .debug_info    0x0000000000024452      0x2db ../recorder_nios_bsp//libucosii_bsp.a(alt_alarm_start.o)
 .debug_info    0x000000000002472d       0x9e ../recorder_nios_bsp//libucosii_bsp.a(alt_dcache_flush_all.o)
 .debug_info    0x00000000000247cb      0x1a2 ../recorder_nios_bsp//libucosii_bsp.a(alt_dev_llist_insert.o)
 .debug_info    0x000000000002496d       0x83 ../recorder_nios_bsp//libucosii_bsp.a(alt_do_ctors.o)
 .debug_info    0x00000000000249f0       0x83 ../recorder_nios_bsp//libucosii_bsp.a(alt_do_dtors.o)
 .debug_info    0x0000000000024a73      0x32c ../recorder_nios_bsp//libucosii_bsp.a(alt_find_dev.o)
 .debug_info    0x0000000000024d9f       0x8b ../recorder_nios_bsp//libucosii_bsp.a(alt_icache_flush_all.o)
 .debug_info    0x0000000000024e2a      0x4e8 ../recorder_nios_bsp//libucosii_bsp.a(alt_io_redirect.o)
 .debug_info    0x0000000000025312      0x346 ../recorder_nios_bsp//libucosii_bsp.a(alt_irq_register.o)
 .debug_info    0x0000000000025658       0x88 ../recorder_nios_bsp//libucosii_bsp.a(alt_irq_vars.o)
 .debug_info    0x00000000000256e0      0x3f3 ../recorder_nios_bsp//libucosii_bsp.a(alt_open.o)
 .debug_info    0x0000000000025ad3      0x2b6 ../recorder_nios_bsp//libucosii_bsp.a(alt_tick.o)
 .debug_info    0x0000000000025d89       0xb1 ../recorder_nios_bsp//libucosii_bsp.a(altera_nios2_gen2_irq.o)
 .debug_info    0x0000000000025e3a       0x7c ../recorder_nios_bsp//libucosii_bsp.a(os_cpu_a.o)
 .debug_info    0x0000000000025eb6      0xcf9 ../recorder_nios_bsp//libucosii_bsp.a(os_cpu_c.o)
 .debug_info    0x0000000000026baf      0x329 ../recorder_nios_bsp//libucosii_bsp.a(alt_find_file.o)
 .debug_info    0x0000000000026ed8      0x45a ../recorder_nios_bsp//libucosii_bsp.a(alt_get_fd.o)
 .debug_info    0x0000000000027332       0xd5 ../recorder_nios_bsp//libucosii_bsp.a(alt_icache_flush.o)
 .debug_info    0x0000000000027407       0x7d ../recorder_nios_bsp//libucosii_bsp.a(alt_irq_entry.o)
 .debug_info    0x0000000000027484      0x1c4 ../recorder_nios_bsp//libucosii_bsp.a(alt_irq_handler.o)
 .debug_info    0x0000000000027648       0x83 ../recorder_nios_bsp//libucosii_bsp.a(alt_exception_entry.o)
 .debug_info    0x00000000000276cb      0x1d8 ../recorder_nios_bsp//libucosii_bsp.a(alt_instruction_exception_entry.o)
 .debug_info    0x00000000000278a3      0x10a /home/alpha/altera/15.1/nios2eds/bin/gnu/H-x86_64-pc-linux-gnu/bin/../lib/gcc/nios2-elf/4.9.2/../../../../../H-x86_64-pc-linux-gnu/nios2-elf/lib/libc.a(lib_a-atexit.o)
 .debug_info    0x00000000000279ad      0x8ef /home/alpha/altera/15.1/nios2eds/bin/gnu/H-x86_64-pc-linux-gnu/bin/../lib/gcc/nios2-elf/4.9.2/../../../../../H-x86_64-pc-linux-gnu/nios2-elf/lib/libc.a(lib_a-exit.o)
 .debug_info    0x000000000002829c      0x113 /home/alpha/altera/15.1/nios2eds/bin/gnu/H-x86_64-pc-linux-gnu/bin/../lib/gcc/nios2-elf/4.9.2/../../../../../H-x86_64-pc-linux-gnu/nios2-elf/lib/libc.a(lib_a-memcmp.o)
 .debug_info    0x00000000000283af      0x93f /home/alpha/altera/15.1/nios2eds/bin/gnu/H-x86_64-pc-linux-gnu/bin/../lib/gcc/nios2-elf/4.9.2/../../../../../H-x86_64-pc-linux-gnu/nios2-elf/lib/libc.a(lib_a-__atexit.o)
 .debug_info    0x0000000000028cee      0x964 /home/alpha/altera/15.1/nios2eds/bin/gnu/H-x86_64-pc-linux-gnu/bin/../lib/gcc/nios2-elf/4.9.2/../../../../../H-x86_64-pc-linux-gnu/nios2-elf/lib/libc.a(lib_a-__call_atexit.o)
 .debug_info    0x0000000000029652      0x14a ../recorder_nios_bsp//libucosii_bsp.a(alt_exit.o)

.debug_abbrev   0x0000000000000000     0x9a78
 *(.debug_abbrev)
 .debug_abbrev  0x0000000000000000       0x12 ../recorder_nios_bsp//obj/HAL/src/crt0.o
 .debug_abbrev  0x0000000000000012       0x63 obj/default/LCD/font/arial18.o
 .debug_abbrev  0x0000000000000075       0x63 obj/default/LCD/font/arial22.o
 .debug_abbrev  0x00000000000000d8       0x63 obj/default/LCD/font/arial40.o
 .debug_abbrev  0x000000000000013b      0x121 obj/default/LCD/Color.o
 .debug_abbrev  0x000000000000025c      0x3a8 obj/default/LCD/lcd_core.o
 .debug_abbrev  0x0000000000000604      0x502 obj/default/audio/audio_core.o
 .debug_abbrev  0x0000000000000b06      0x4bf obj/default/main.o
 .debug_abbrev  0x0000000000000fc5      0x416 /home/alpha/altera/15.1/nios2eds/bin/gnu/H-x86_64-pc-linux-gnu/bin/../lib/gcc/nios2-elf/4.9.2/../../../../../H-x86_64-pc-linux-gnu/nios2-elf/lib/libstdc++.a(class_type_info.o)
 .debug_abbrev  0x00000000000013db      0x147 /home/alpha/altera/15.1/nios2eds/bin/gnu/H-x86_64-pc-linux-gnu/bin/../lib/gcc/nios2-elf/4.9.2/../../../../../H-x86_64-pc-linux-gnu/nios2-elf/lib/libstdc++.a(del_op.o)
 .debug_abbrev  0x0000000000001522      0x38c /home/alpha/altera/15.1/nios2eds/bin/gnu/H-x86_64-pc-linux-gnu/bin/../lib/gcc/nios2-elf/4.9.2/../../../../../H-x86_64-pc-linux-gnu/nios2-elf/lib/libstdc++.a(si_class_type_info.o)
 .debug_abbrev  0x00000000000018ae      0x29c /home/alpha/altera/15.1/nios2eds/bin/gnu/H-x86_64-pc-linux-gnu/bin/../lib/gcc/nios2-elf/4.9.2/../../../../../H-x86_64-pc-linux-gnu/nios2-elf/lib/libstdc++.a(tinfo.o)
 .debug_abbrev  0x0000000000001b4a      0x209 /home/alpha/altera/15.1/nios2eds/bin/gnu/H-x86_64-pc-linux-gnu/bin/../lib/gcc/nios2-elf/4.9.2/../../../../../H-x86_64-pc-linux-gnu/nios2-elf/lib/libc.a(lib_a-malloc.o)
 .debug_abbrev  0x0000000000001d53      0x2ad /home/alpha/altera/15.1/nios2eds/bin/gnu/H-x86_64-pc-linux-gnu/bin/../lib/gcc/nios2-elf/4.9.2/../../../../../H-x86_64-pc-linux-gnu/nios2-elf/lib/libc.a(lib_a-mallocr.o)
 .debug_abbrev  0x0000000000002000      0x244 /home/alpha/altera/15.1/nios2eds/bin/gnu/H-x86_64-pc-linux-gnu/bin/../lib/gcc/nios2-elf/4.9.2/../../../../../H-x86_64-pc-linux-gnu/nios2-elf/lib/libc.a(lib_a-puts.o)
 .debug_abbrev  0x0000000000002244      0x20c /home/alpha/altera/15.1/nios2eds/bin/gnu/H-x86_64-pc-linux-gnu/bin/../lib/gcc/nios2-elf/4.9.2/../../../../../H-x86_64-pc-linux-gnu/nios2-elf/lib/libc.a(lib_a-sbrkr.o)
 .debug_abbrev  0x0000000000002450       0x74 /home/alpha/altera/15.1/nios2eds/bin/gnu/H-x86_64-pc-linux-gnu/bin/../lib/gcc/nios2-elf/4.9.2/../../../../../H-x86_64-pc-linux-gnu/nios2-elf/lib/libc.a(lib_a-strcmp.o)
 .debug_abbrev  0x00000000000024c4       0x90 /home/alpha/altera/15.1/nios2eds/bin/gnu/H-x86_64-pc-linux-gnu/bin/../lib/gcc/nios2-elf/4.9.2/../../../../../H-x86_64-pc-linux-gnu/nios2-elf/lib/libc.a(lib_a-strlen.o)
 .debug_abbrev  0x0000000000002554      0x27b /home/alpha/altera/15.1/nios2eds/bin/gnu/H-x86_64-pc-linux-gnu/bin/../lib/gcc/nios2-elf/4.9.2/../../../../../H-x86_64-pc-linux-gnu/nios2-elf/lib/libc.a(lib_a-freer.o)
 .debug_abbrev  0x00000000000027cf      0x256 /home/alpha/altera/15.1/nios2eds/bin/gnu/H-x86_64-pc-linux-gnu/bin/../lib/gcc/nios2-elf/4.9.2/../../../../../H-x86_64-pc-linux-gnu/nios2-elf/lib/libc.a(lib_a-fvwrite.o)
 .debug_abbrev  0x0000000000002a25      0x18f /home/alpha/altera/15.1/nios2eds/bin/gnu/H-x86_64-pc-linux-gnu/bin/../lib/gcc/nios2-elf/4.9.2/../../../../../H-x86_64-pc-linux-gnu/nios2-elf/lib/libc.a(lib_a-impure.o)
 .debug_abbrev  0x0000000000002bb4       0x37 /home/alpha/altera/15.1/nios2eds/bin/gnu/H-x86_64-pc-linux-gnu/bin/../lib/gcc/nios2-elf/4.9.2/../../../../../H-x86_64-pc-linux-gnu/nios2-elf/lib/libc.a(lib_a-int_errno.o)
 .debug_abbrev  0x0000000000002beb       0xab /home/alpha/altera/15.1/nios2eds/bin/gnu/H-x86_64-pc-linux-gnu/bin/../lib/gcc/nios2-elf/4.9.2/../../../../../H-x86_64-pc-linux-gnu/nios2-elf/lib/libc.a(lib_a-memchr.o)
 .debug_abbrev  0x0000000000002c96       0x9c /home/alpha/altera/15.1/nios2eds/bin/gnu/H-x86_64-pc-linux-gnu/bin/../lib/gcc/nios2-elf/4.9.2/../../../../../H-x86_64-pc-linux-gnu/nios2-elf/lib/libc.a(lib_a-memcpy.o)
 .debug_abbrev  0x0000000000002d32       0x9c /home/alpha/altera/15.1/nios2eds/bin/gnu/H-x86_64-pc-linux-gnu/bin/../lib/gcc/nios2-elf/4.9.2/../../../../../H-x86_64-pc-linux-gnu/nios2-elf/lib/libc.a(lib_a-memmove.o)
 .debug_abbrev  0x0000000000002dce      0x25e /home/alpha/altera/15.1/nios2eds/bin/gnu/H-x86_64-pc-linux-gnu/bin/../lib/gcc/nios2-elf/4.9.2/../../../../../H-x86_64-pc-linux-gnu/nios2-elf/lib/libc.a(lib_a-reallocr.o)
 .debug_abbrev  0x000000000000302c      0x21a /home/alpha/altera/15.1/nios2eds/bin/gnu/H-x86_64-pc-linux-gnu/bin/../lib/gcc/nios2-elf/4.9.2/../../../../../H-x86_64-pc-linux-gnu/nios2-elf/lib/libc.a(lib_a-wsetup.o)
 .debug_abbrev  0x0000000000003246      0x2a0 /home/alpha/altera/15.1/nios2eds/bin/gnu/H-x86_64-pc-linux-gnu/bin/../lib/gcc/nios2-elf/4.9.2/../../../../../H-x86_64-pc-linux-gnu/nios2-elf/lib/libc.a(lib_a-fflush.o)
 .debug_abbrev  0x00000000000034e6      0x350 /home/alpha/altera/15.1/nios2eds/bin/gnu/H-x86_64-pc-linux-gnu/bin/../lib/gcc/nios2-elf/4.9.2/../../../../../H-x86_64-pc-linux-gnu/nios2-elf/lib/libc.a(lib_a-findfp.o)
 .debug_abbrev  0x0000000000003836      0x1d1 /home/alpha/altera/15.1/nios2eds/bin/gnu/H-x86_64-pc-linux-gnu/bin/../lib/gcc/nios2-elf/4.9.2/../../../../../H-x86_64-pc-linux-gnu/nios2-elf/lib/libc.a(lib_a-fwalk.o)
 .debug_abbrev  0x0000000000003a07      0x215 /home/alpha/altera/15.1/nios2eds/bin/gnu/H-x86_64-pc-linux-gnu/bin/../lib/gcc/nios2-elf/4.9.2/../../../../../H-x86_64-pc-linux-gnu/nios2-elf/lib/libc.a(lib_a-makebuf.o)
 .debug_abbrev  0x0000000000003c1c       0xae /home/alpha/altera/15.1/nios2eds/bin/gnu/H-x86_64-pc-linux-gnu/bin/../lib/gcc/nios2-elf/4.9.2/../../../../../H-x86_64-pc-linux-gnu/nios2-elf/lib/libc.a(lib_a-memset.o)
 .debug_abbrev  0x0000000000003cca      0x255 /home/alpha/altera/15.1/nios2eds/bin/gnu/H-x86_64-pc-linux-gnu/bin/../lib/gcc/nios2-elf/4.9.2/../../../../../H-x86_64-pc-linux-gnu/nios2-elf/lib/libc.a(lib_a-stdio.o)
 .debug_abbrev  0x0000000000003f1f      0x1ed /home/alpha/altera/15.1/nios2eds/bin/gnu/H-x86_64-pc-linux-gnu/bin/../lib/gcc/nios2-elf/4.9.2/../../../../../H-x86_64-pc-linux-gnu/nios2-elf/lib/libc.a(lib_a-writer.o)
 .debug_abbrev  0x000000000000410c      0x1e8 /home/alpha/altera/15.1/nios2eds/bin/gnu/H-x86_64-pc-linux-gnu/bin/../lib/gcc/nios2-elf/4.9.2/../../../../../H-x86_64-pc-linux-gnu/nios2-elf/lib/libc.a(closer.o)
 .debug_abbrev  0x00000000000042f4      0x2b9 /home/alpha/altera/15.1/nios2eds/bin/gnu/H-x86_64-pc-linux-gnu/bin/../lib/gcc/nios2-elf/4.9.2/../../../../../H-x86_64-pc-linux-gnu/nios2-elf/lib/libc.a(lib_a-fclose.o)
 .debug_abbrev  0x00000000000045ad      0x1f7 /home/alpha/altera/15.1/nios2eds/bin/gnu/H-x86_64-pc-linux-gnu/bin/../lib/gcc/nios2-elf/4.9.2/../../../../../H-x86_64-pc-linux-gnu/nios2-elf/lib/libc.a(lib_a-fstatr.o)
 .debug_abbrev  0x00000000000047a4      0x1e8 /home/alpha/altera/15.1/nios2eds/bin/gnu/H-x86_64-pc-linux-gnu/bin/../lib/gcc/nios2-elf/4.9.2/../../../../../H-x86_64-pc-linux-gnu/nios2-elf/lib/libc.a(lib_a-isattyr.o)
 .debug_abbrev  0x000000000000498c      0x1f7 /home/alpha/altera/15.1/nios2eds/bin/gnu/H-x86_64-pc-linux-gnu/bin/../lib/gcc/nios2-elf/4.9.2/../../../../../H-x86_64-pc-linux-gnu/nios2-elf/lib/libc.a(lib_a-lseekr.o)
 .debug_abbrev  0x0000000000004b83      0x1e8 /home/alpha/altera/15.1/nios2eds/bin/gnu/H-x86_64-pc-linux-gnu/bin/../lib/gcc/nios2-elf/4.9.2/../../../../../H-x86_64-pc-linux-gnu/nios2-elf/lib/libc.a(lib_a-readr.o)
 .debug_abbrev  0x0000000000004d6b       0xd9 /home/alpha/altera/15.1/nios2eds/bin/gnu/H-x86_64-pc-linux-gnu/bin/../lib/gcc/nios2-elf/4.9.2/libgcc.a(lib2-divmod.o)
 .debug_abbrev  0x0000000000004e44      0x126 ../recorder_nios_bsp//libucosii_bsp.a(alt_close.o)
 .debug_abbrev  0x0000000000004f6a      0x11c ../recorder_nios_bsp//libucosii_bsp.a(alt_dev.o)
 .debug_abbrev  0x0000000000005086       0x5a ../recorder_nios_bsp//libucosii_bsp.a(alt_errno.o)
 .debug_abbrev  0x00000000000050e0      0x126 ../recorder_nios_bsp//libucosii_bsp.a(alt_fstat.o)
 .debug_abbrev  0x0000000000005206      0x126 ../recorder_nios_bsp//libucosii_bsp.a(alt_isatty.o)
 .debug_abbrev  0x000000000000532c       0x9f ../recorder_nios_bsp//libucosii_bsp.a(alt_load.o)
 .debug_abbrev  0x00000000000053cb      0x126 ../recorder_nios_bsp//libucosii_bsp.a(alt_lseek.o)
 .debug_abbrev  0x00000000000054f1      0x139 ../recorder_nios_bsp//libucosii_bsp.a(alt_main.o)
 .debug_abbrev  0x000000000000562a      0x135 ../recorder_nios_bsp//libucosii_bsp.a(alt_read.o)
 .debug_abbrev  0x000000000000575f       0xe5 ../recorder_nios_bsp//libucosii_bsp.a(alt_release_fd.o)
 .debug_abbrev  0x0000000000005844      0x119 ../recorder_nios_bsp//libucosii_bsp.a(alt_sbrk.o)
 .debug_abbrev  0x000000000000595d      0x13a ../recorder_nios_bsp//libucosii_bsp.a(alt_write.o)
 .debug_abbrev  0x0000000000005a97      0x1e3 ../recorder_nios_bsp//libucosii_bsp.a(alt_env_lock.o)
 .debug_abbrev  0x0000000000005c7a      0x26d ../recorder_nios_bsp//libucosii_bsp.a(alt_malloc_lock.o)
 .debug_abbrev  0x0000000000005ee7      0x302 ../recorder_nios_bsp//libucosii_bsp.a(os_core.o)
 .debug_abbrev  0x00000000000061e9       0xf7 ../recorder_nios_bsp//libucosii_bsp.a(os_dbg.o)
 .debug_abbrev  0x00000000000062e0      0x25a ../recorder_nios_bsp//libucosii_bsp.a(os_flag.o)
 .debug_abbrev  0x000000000000653a      0x228 ../recorder_nios_bsp//libucosii_bsp.a(os_mem.o)
 .debug_abbrev  0x0000000000006762      0x248 ../recorder_nios_bsp//libucosii_bsp.a(os_q.o)
 .debug_abbrev  0x00000000000069aa      0x262 ../recorder_nios_bsp//libucosii_bsp.a(os_sem.o)
 .debug_abbrev  0x0000000000006c0c      0x247 ../recorder_nios_bsp//libucosii_bsp.a(os_task.o)
 .debug_abbrev  0x0000000000006e53      0x20c ../recorder_nios_bsp//libucosii_bsp.a(os_time.o)
 .debug_abbrev  0x000000000000705f      0x1d3 ../recorder_nios_bsp//libucosii_bsp.a(alt_sys_init.o)
 .debug_abbrev  0x0000000000007232      0x16c ../recorder_nios_bsp//libucosii_bsp.a(altera_avalon_jtag_uart_fd.o)
 .debug_abbrev  0x000000000000739e      0x248 ../recorder_nios_bsp//libucosii_bsp.a(altera_avalon_jtag_uart_init.o)
 .debug_abbrev  0x00000000000075e6      0x156 ../recorder_nios_bsp//libucosii_bsp.a(altera_avalon_jtag_uart_ioctl.o)
 .debug_abbrev  0x000000000000773c      0x1fa ../recorder_nios_bsp//libucosii_bsp.a(altera_avalon_jtag_uart_read.o)
 .debug_abbrev  0x0000000000007936      0x1f6 ../recorder_nios_bsp//libucosii_bsp.a(altera_avalon_jtag_uart_write.o)
 .debug_abbrev  0x0000000000007b2c      0x155 ../recorder_nios_bsp//libucosii_bsp.a(altera_avalon_timer_sc.o)
 .debug_abbrev  0x0000000000007c81      0x165 ../recorder_nios_bsp//libucosii_bsp.a(altera_up_avalon_audio.o)
 .debug_abbrev  0x0000000000007de6      0x1c9 ../recorder_nios_bsp//libucosii_bsp.a(altera_up_avalon_video_pixel_buffer_dma.o)
 .debug_abbrev  0x0000000000007faf      0x162 ../recorder_nios_bsp//libucosii_bsp.a(alt_alarm_start.o)
 .debug_abbrev  0x0000000000008111       0x5a ../recorder_nios_bsp//libucosii_bsp.a(alt_dcache_flush_all.o)
 .debug_abbrev  0x000000000000816b      0x114 ../recorder_nios_bsp//libucosii_bsp.a(alt_dev_llist_insert.o)
 .debug_abbrev  0x000000000000827f       0x79 ../recorder_nios_bsp//libucosii_bsp.a(alt_do_ctors.o)
 .debug_abbrev  0x00000000000082f8       0x79 ../recorder_nios_bsp//libucosii_bsp.a(alt_do_dtors.o)
 .debug_abbrev  0x0000000000008371       0xf7 ../recorder_nios_bsp//libucosii_bsp.a(alt_find_dev.o)
 .debug_abbrev  0x0000000000008468       0x42 ../recorder_nios_bsp//libucosii_bsp.a(alt_icache_flush_all.o)
 .debug_abbrev  0x00000000000084aa      0x11b ../recorder_nios_bsp//libucosii_bsp.a(alt_io_redirect.o)
 .debug_abbrev  0x00000000000085c5      0x186 ../recorder_nios_bsp//libucosii_bsp.a(alt_irq_register.o)
 .debug_abbrev  0x000000000000874b       0x40 ../recorder_nios_bsp//libucosii_bsp.a(alt_irq_vars.o)
 .debug_abbrev  0x000000000000878b      0x14f ../recorder_nios_bsp//libucosii_bsp.a(alt_open.o)
 .debug_abbrev  0x00000000000088da      0x16b ../recorder_nios_bsp//libucosii_bsp.a(alt_tick.o)
 .debug_abbrev  0x0000000000008a45       0x67 ../recorder_nios_bsp//libucosii_bsp.a(altera_nios2_gen2_irq.o)
 .debug_abbrev  0x0000000000008aac       0x14 ../recorder_nios_bsp//libucosii_bsp.a(os_cpu_a.o)
 .debug_abbrev  0x0000000000008ac0      0x215 ../recorder_nios_bsp//libucosii_bsp.a(os_cpu_c.o)
 .debug_abbrev  0x0000000000008cd5       0xf7 ../recorder_nios_bsp//libucosii_bsp.a(alt_find_file.o)
 .debug_abbrev  0x0000000000008dcc      0x19b ../recorder_nios_bsp//libucosii_bsp.a(alt_get_fd.o)
 .debug_abbrev  0x0000000000008f67       0x8c ../recorder_nios_bsp//libucosii_bsp.a(alt_icache_flush.o)
 .debug_abbrev  0x0000000000008ff3       0x12 ../recorder_nios_bsp//libucosii_bsp.a(alt_irq_entry.o)
 .debug_abbrev  0x0000000000009005      0x13a ../recorder_nios_bsp//libucosii_bsp.a(alt_irq_handler.o)
 .debug_abbrev  0x000000000000913f       0x12 ../recorder_nios_bsp//libucosii_bsp.a(alt_exception_entry.o)
 .debug_abbrev  0x0000000000009151       0xd1 ../recorder_nios_bsp//libucosii_bsp.a(alt_instruction_exception_entry.o)
 .debug_abbrev  0x0000000000009222       0xb8 /home/alpha/altera/15.1/nios2eds/bin/gnu/H-x86_64-pc-linux-gnu/bin/../lib/gcc/nios2-elf/4.9.2/../../../../../H-x86_64-pc-linux-gnu/nios2-elf/lib/libc.a(lib_a-atexit.o)
 .debug_abbrev  0x00000000000092da      0x1f5 /home/alpha/altera/15.1/nios2eds/bin/gnu/H-x86_64-pc-linux-gnu/bin/../lib/gcc/nios2-elf/4.9.2/../../../../../H-x86_64-pc-linux-gnu/nios2-elf/lib/libc.a(lib_a-exit.o)
 .debug_abbrev  0x00000000000094cf       0x7f /home/alpha/altera/15.1/nios2eds/bin/gnu/H-x86_64-pc-linux-gnu/bin/../lib/gcc/nios2-elf/4.9.2/../../../../../H-x86_64-pc-linux-gnu/nios2-elf/lib/libc.a(lib_a-memcmp.o)
 .debug_abbrev  0x000000000000954e      0x21e /home/alpha/altera/15.1/nios2eds/bin/gnu/H-x86_64-pc-linux-gnu/bin/../lib/gcc/nios2-elf/4.9.2/../../../../../H-x86_64-pc-linux-gnu/nios2-elf/lib/libc.a(lib_a-__atexit.o)
 .debug_abbrev  0x000000000000976c      0x22e /home/alpha/altera/15.1/nios2eds/bin/gnu/H-x86_64-pc-linux-gnu/bin/../lib/gcc/nios2-elf/4.9.2/../../../../../H-x86_64-pc-linux-gnu/nios2-elf/lib/libc.a(lib_a-__call_atexit.o)
 .debug_abbrev  0x000000000000999a       0xde ../recorder_nios_bsp//libucosii_bsp.a(alt_exit.o)

.debug_line     0x0000000000000000     0xb38b
 *(.debug_line)
 .debug_line    0x0000000000000000       0x72 ../recorder_nios_bsp//obj/HAL/src/crt0.o
 .debug_line    0x0000000000000072       0x33 obj/default/LCD/font/arial18.o
 .debug_line    0x00000000000000a5       0x33 obj/default/LCD/font/arial22.o
 .debug_line    0x00000000000000d8       0x33 obj/default/LCD/font/arial40.o
 .debug_line    0x000000000000010b       0x5a obj/default/LCD/Color.o
 .debug_line    0x0000000000000165      0x32e obj/default/LCD/lcd_core.o
 .debug_line    0x0000000000000493      0x60c obj/default/audio/audio_core.o
 .debug_line    0x0000000000000a9f      0x588 obj/default/main.o
 .debug_line    0x0000000000001027      0x28c /home/alpha/altera/15.1/nios2eds/bin/gnu/H-x86_64-pc-linux-gnu/bin/../lib/gcc/nios2-elf/4.9.2/../../../../../H-x86_64-pc-linux-gnu/nios2-elf/lib/libstdc++.a(class_type_info.o)
 .debug_line    0x00000000000012b3      0x1ee /home/alpha/altera/15.1/nios2eds/bin/gnu/H-x86_64-pc-linux-gnu/bin/../lib/gcc/nios2-elf/4.9.2/../../../../../H-x86_64-pc-linux-gnu/nios2-elf/lib/libstdc++.a(del_op.o)
 .debug_line    0x00000000000014a1      0x237 /home/alpha/altera/15.1/nios2eds/bin/gnu/H-x86_64-pc-linux-gnu/bin/../lib/gcc/nios2-elf/4.9.2/../../../../../H-x86_64-pc-linux-gnu/nios2-elf/lib/libstdc++.a(si_class_type_info.o)
 .debug_line    0x00000000000016d8      0x163 /home/alpha/altera/15.1/nios2eds/bin/gnu/H-x86_64-pc-linux-gnu/bin/../lib/gcc/nios2-elf/4.9.2/../../../../../H-x86_64-pc-linux-gnu/nios2-elf/lib/libstdc++.a(tinfo.o)
 .debug_line    0x000000000000183b      0x1f0 /home/alpha/altera/15.1/nios2eds/bin/gnu/H-x86_64-pc-linux-gnu/bin/../lib/gcc/nios2-elf/4.9.2/../../../../../H-x86_64-pc-linux-gnu/nios2-elf/lib/libc.a(lib_a-malloc.o)
 .debug_line    0x0000000000001a2b      0x3fa /home/alpha/altera/15.1/nios2eds/bin/gnu/H-x86_64-pc-linux-gnu/bin/../lib/gcc/nios2-elf/4.9.2/../../../../../H-x86_64-pc-linux-gnu/nios2-elf/lib/libc.a(lib_a-mallocr.o)
 .debug_line    0x0000000000001e25      0x22f /home/alpha/altera/15.1/nios2eds/bin/gnu/H-x86_64-pc-linux-gnu/bin/../lib/gcc/nios2-elf/4.9.2/../../../../../H-x86_64-pc-linux-gnu/nios2-elf/lib/libc.a(lib_a-puts.o)
 .debug_line    0x0000000000002054      0x1e6 /home/alpha/altera/15.1/nios2eds/bin/gnu/H-x86_64-pc-linux-gnu/bin/../lib/gcc/nios2-elf/4.9.2/../../../../../H-x86_64-pc-linux-gnu/nios2-elf/lib/libc.a(lib_a-sbrkr.o)
 .debug_line    0x000000000000223a       0xf4 /home/alpha/altera/15.1/nios2eds/bin/gnu/H-x86_64-pc-linux-gnu/bin/../lib/gcc/nios2-elf/4.9.2/../../../../../H-x86_64-pc-linux-gnu/nios2-elf/lib/libc.a(lib_a-strcmp.o)
 .debug_line    0x000000000000232e      0x16c /home/alpha/altera/15.1/nios2eds/bin/gnu/H-x86_64-pc-linux-gnu/bin/../lib/gcc/nios2-elf/4.9.2/../../../../../H-x86_64-pc-linux-gnu/nios2-elf/lib/libc.a(lib_a-strlen.o)
 .debug_line    0x000000000000249a      0x2ec /home/alpha/altera/15.1/nios2eds/bin/gnu/H-x86_64-pc-linux-gnu/bin/../lib/gcc/nios2-elf/4.9.2/../../../../../H-x86_64-pc-linux-gnu/nios2-elf/lib/libc.a(lib_a-freer.o)
 .debug_line    0x0000000000002786      0x364 /home/alpha/altera/15.1/nios2eds/bin/gnu/H-x86_64-pc-linux-gnu/bin/../lib/gcc/nios2-elf/4.9.2/../../../../../H-x86_64-pc-linux-gnu/nios2-elf/lib/libc.a(lib_a-fvwrite.o)
 .debug_line    0x0000000000002aea      0x15d /home/alpha/altera/15.1/nios2eds/bin/gnu/H-x86_64-pc-linux-gnu/bin/../lib/gcc/nios2-elf/4.9.2/../../../../../H-x86_64-pc-linux-gnu/nios2-elf/lib/libc.a(lib_a-impure.o)
 .debug_line    0x0000000000002c47       0x5c /home/alpha/altera/15.1/nios2eds/bin/gnu/H-x86_64-pc-linux-gnu/bin/../lib/gcc/nios2-elf/4.9.2/../../../../../H-x86_64-pc-linux-gnu/nios2-elf/lib/libc.a(lib_a-int_errno.o)
 .debug_line    0x0000000000002ca3      0x18b /home/alpha/altera/15.1/nios2eds/bin/gnu/H-x86_64-pc-linux-gnu/bin/../lib/gcc/nios2-elf/4.9.2/../../../../../H-x86_64-pc-linux-gnu/nios2-elf/lib/libc.a(lib_a-memchr.o)
 .debug_line    0x0000000000002e2e      0x182 /home/alpha/altera/15.1/nios2eds/bin/gnu/H-x86_64-pc-linux-gnu/bin/../lib/gcc/nios2-elf/4.9.2/../../../../../H-x86_64-pc-linux-gnu/nios2-elf/lib/libc.a(lib_a-memcpy.o)
 .debug_line    0x0000000000002fb0      0x189 /home/alpha/altera/15.1/nios2eds/bin/gnu/H-x86_64-pc-linux-gnu/bin/../lib/gcc/nios2-elf/4.9.2/../../../../../H-x86_64-pc-linux-gnu/nios2-elf/lib/libc.a(lib_a-memmove.o)
 .debug_line    0x0000000000003139      0x2e9 /home/alpha/altera/15.1/nios2eds/bin/gnu/H-x86_64-pc-linux-gnu/bin/../lib/gcc/nios2-elf/4.9.2/../../../../../H-x86_64-pc-linux-gnu/nios2-elf/lib/libc.a(lib_a-reallocr.o)
 .debug_line    0x0000000000003422      0x263 /home/alpha/altera/15.1/nios2eds/bin/gnu/H-x86_64-pc-linux-gnu/bin/../lib/gcc/nios2-elf/4.9.2/../../../../../H-x86_64-pc-linux-gnu/nios2-elf/lib/libc.a(lib_a-wsetup.o)
 .debug_line    0x0000000000003685      0x2e2 /home/alpha/altera/15.1/nios2eds/bin/gnu/H-x86_64-pc-linux-gnu/bin/../lib/gcc/nios2-elf/4.9.2/../../../../../H-x86_64-pc-linux-gnu/nios2-elf/lib/libc.a(lib_a-fflush.o)
 .debug_line    0x0000000000003967      0x3b6 /home/alpha/altera/15.1/nios2eds/bin/gnu/H-x86_64-pc-linux-gnu/bin/../lib/gcc/nios2-elf/4.9.2/../../../../../H-x86_64-pc-linux-gnu/nios2-elf/lib/libc.a(lib_a-findfp.o)
 .debug_line    0x0000000000003d1d      0x238 /home/alpha/altera/15.1/nios2eds/bin/gnu/H-x86_64-pc-linux-gnu/bin/../lib/gcc/nios2-elf/4.9.2/../../../../../H-x86_64-pc-linux-gnu/nios2-elf/lib/libc.a(lib_a-fwalk.o)
 .debug_line    0x0000000000003f55      0x271 /home/alpha/altera/15.1/nios2eds/bin/gnu/H-x86_64-pc-linux-gnu/bin/../lib/gcc/nios2-elf/4.9.2/../../../../../H-x86_64-pc-linux-gnu/nios2-elf/lib/libc.a(lib_a-makebuf.o)
 .debug_line    0x00000000000041c6      0x18c /home/alpha/altera/15.1/nios2eds/bin/gnu/H-x86_64-pc-linux-gnu/bin/../lib/gcc/nios2-elf/4.9.2/../../../../../H-x86_64-pc-linux-gnu/nios2-elf/lib/libc.a(lib_a-memset.o)
 .debug_line    0x0000000000004352      0x267 /home/alpha/altera/15.1/nios2eds/bin/gnu/H-x86_64-pc-linux-gnu/bin/../lib/gcc/nios2-elf/4.9.2/../../../../../H-x86_64-pc-linux-gnu/nios2-elf/lib/libc.a(lib_a-stdio.o)
 .debug_line    0x00000000000045b9      0x1f3 /home/alpha/altera/15.1/nios2eds/bin/gnu/H-x86_64-pc-linux-gnu/bin/../lib/gcc/nios2-elf/4.9.2/../../../../../H-x86_64-pc-linux-gnu/nios2-elf/lib/libc.a(lib_a-writer.o)
 .debug_line    0x00000000000047ac      0x1f3 /home/alpha/altera/15.1/nios2eds/bin/gnu/H-x86_64-pc-linux-gnu/bin/../lib/gcc/nios2-elf/4.9.2/../../../../../H-x86_64-pc-linux-gnu/nios2-elf/lib/libc.a(closer.o)
 .debug_line    0x000000000000499f      0x236 /home/alpha/altera/15.1/nios2eds/bin/gnu/H-x86_64-pc-linux-gnu/bin/../lib/gcc/nios2-elf/4.9.2/../../../../../H-x86_64-pc-linux-gnu/nios2-elf/lib/libc.a(lib_a-fclose.o)
 .debug_line    0x0000000000004bd5      0x1fc /home/alpha/altera/15.1/nios2eds/bin/gnu/H-x86_64-pc-linux-gnu/bin/../lib/gcc/nios2-elf/4.9.2/../../../../../H-x86_64-pc-linux-gnu/nios2-elf/lib/libc.a(lib_a-fstatr.o)
 .debug_line    0x0000000000004dd1      0x1f4 /home/alpha/altera/15.1/nios2eds/bin/gnu/H-x86_64-pc-linux-gnu/bin/../lib/gcc/nios2-elf/4.9.2/../../../../../H-x86_64-pc-linux-gnu/nios2-elf/lib/libc.a(lib_a-isattyr.o)
 .debug_line    0x0000000000004fc5      0x1fe /home/alpha/altera/15.1/nios2eds/bin/gnu/H-x86_64-pc-linux-gnu/bin/../lib/gcc/nios2-elf/4.9.2/../../../../../H-x86_64-pc-linux-gnu/nios2-elf/lib/libc.a(lib_a-lseekr.o)
 .debug_line    0x00000000000051c3      0x1f2 /home/alpha/altera/15.1/nios2eds/bin/gnu/H-x86_64-pc-linux-gnu/bin/../lib/gcc/nios2-elf/4.9.2/../../../../../H-x86_64-pc-linux-gnu/nios2-elf/lib/libc.a(lib_a-readr.o)
 .debug_line    0x00000000000053b5       0xc4 /home/alpha/altera/15.1/nios2eds/bin/gnu/H-x86_64-pc-linux-gnu/bin/../lib/gcc/nios2-elf/4.9.2/libgcc.a(lib2-divmod.o)
 .debug_line    0x0000000000005479      0x18f ../recorder_nios_bsp//libucosii_bsp.a(alt_close.o)
 .debug_line    0x0000000000005608      0x156 ../recorder_nios_bsp//libucosii_bsp.a(alt_dev.o)
 .debug_line    0x000000000000575e       0x51 ../recorder_nios_bsp//libucosii_bsp.a(alt_errno.o)
 .debug_line    0x00000000000057af      0x188 ../recorder_nios_bsp//libucosii_bsp.a(alt_fstat.o)
 .debug_line    0x0000000000005937      0x18c ../recorder_nios_bsp//libucosii_bsp.a(alt_isatty.o)
 .debug_line    0x0000000000005ac3       0x8d ../recorder_nios_bsp//libucosii_bsp.a(alt_load.o)
 .debug_line    0x0000000000005b50      0x18d ../recorder_nios_bsp//libucosii_bsp.a(alt_lseek.o)
 .debug_line    0x0000000000005cdd      0x143 ../recorder_nios_bsp//libucosii_bsp.a(alt_main.o)
 .debug_line    0x0000000000005e20      0x20c ../recorder_nios_bsp//libucosii_bsp.a(alt_read.o)
 .debug_line    0x000000000000602c       0xd1 ../recorder_nios_bsp//libucosii_bsp.a(alt_release_fd.o)
 .debug_line    0x00000000000060fd      0x135 ../recorder_nios_bsp//libucosii_bsp.a(alt_sbrk.o)
 .debug_line    0x0000000000006232      0x20b ../recorder_nios_bsp//libucosii_bsp.a(alt_write.o)
 .debug_line    0x000000000000643d      0x1c2 ../recorder_nios_bsp//libucosii_bsp.a(alt_env_lock.o)
 .debug_line    0x00000000000065ff      0x230 ../recorder_nios_bsp//libucosii_bsp.a(alt_malloc_lock.o)
 .debug_line    0x000000000000682f      0x690 ../recorder_nios_bsp//libucosii_bsp.a(os_core.o)
 .debug_line    0x0000000000006ebf       0xe6 ../recorder_nios_bsp//libucosii_bsp.a(os_dbg.o)
 .debug_line    0x0000000000006fa5      0x519 ../recorder_nios_bsp//libucosii_bsp.a(os_flag.o)
 .debug_line    0x00000000000074be      0x252 ../recorder_nios_bsp//libucosii_bsp.a(os_mem.o)
 .debug_line    0x0000000000007710      0x424 ../recorder_nios_bsp//libucosii_bsp.a(os_q.o)
 .debug_line    0x0000000000007b34      0x2fe ../recorder_nios_bsp//libucosii_bsp.a(os_sem.o)
 .debug_line    0x0000000000007e32      0x55b ../recorder_nios_bsp//libucosii_bsp.a(os_task.o)
 .debug_line    0x000000000000838d      0x1be ../recorder_nios_bsp//libucosii_bsp.a(os_time.o)
 .debug_line    0x000000000000854b      0x22c ../recorder_nios_bsp//libucosii_bsp.a(alt_sys_init.o)
 .debug_line    0x0000000000008777      0x169 ../recorder_nios_bsp//libucosii_bsp.a(altera_avalon_jtag_uart_fd.o)
 .debug_line    0x00000000000088e0      0x231 ../recorder_nios_bsp//libucosii_bsp.a(altera_avalon_jtag_uart_init.o)
 .debug_line    0x0000000000008b11      0x168 ../recorder_nios_bsp//libucosii_bsp.a(altera_avalon_jtag_uart_ioctl.o)
 .debug_line    0x0000000000008c79      0x1ec ../recorder_nios_bsp//libucosii_bsp.a(altera_avalon_jtag_uart_read.o)
 .debug_line    0x0000000000008e65      0x1ec ../recorder_nios_bsp//libucosii_bsp.a(altera_avalon_jtag_uart_write.o)
 .debug_line    0x0000000000009051      0x113 ../recorder_nios_bsp//libucosii_bsp.a(altera_avalon_timer_sc.o)
 .debug_line    0x0000000000009164      0x202 ../recorder_nios_bsp//libucosii_bsp.a(altera_up_avalon_audio.o)
 .debug_line    0x0000000000009366      0x4c4 ../recorder_nios_bsp//libucosii_bsp.a(altera_up_avalon_video_pixel_buffer_dma.o)
 .debug_line    0x000000000000982a      0x10e ../recorder_nios_bsp//libucosii_bsp.a(alt_alarm_start.o)
 .debug_line    0x0000000000009938       0x61 ../recorder_nios_bsp//libucosii_bsp.a(alt_dcache_flush_all.o)
 .debug_line    0x0000000000009999       0xd0 ../recorder_nios_bsp//libucosii_bsp.a(alt_dev_llist_insert.o)
 .debug_line    0x0000000000009a69       0x59 ../recorder_nios_bsp//libucosii_bsp.a(alt_do_ctors.o)
 .debug_line    0x0000000000009ac2       0x59 ../recorder_nios_bsp//libucosii_bsp.a(alt_do_dtors.o)
 .debug_line    0x0000000000009b1b       0xd8 ../recorder_nios_bsp//libucosii_bsp.a(alt_find_dev.o)
 .debug_line    0x0000000000009bf3       0x50 ../recorder_nios_bsp//libucosii_bsp.a(alt_icache_flush_all.o)
 .debug_line    0x0000000000009c43      0x15c ../recorder_nios_bsp//libucosii_bsp.a(alt_io_redirect.o)
 .debug_line    0x0000000000009d9f      0x168 ../recorder_nios_bsp//libucosii_bsp.a(alt_irq_register.o)
 .debug_line    0x0000000000009f07       0x50 ../recorder_nios_bsp//libucosii_bsp.a(alt_irq_vars.o)
 .debug_line    0x0000000000009f57      0x14d ../recorder_nios_bsp//libucosii_bsp.a(alt_open.o)
 .debug_line    0x000000000000a0a4      0x112 ../recorder_nios_bsp//libucosii_bsp.a(alt_tick.o)
 .debug_line    0x000000000000a1b6       0x8d ../recorder_nios_bsp//libucosii_bsp.a(altera_nios2_gen2_irq.o)
 .debug_line    0x000000000000a243       0x86 ../recorder_nios_bsp//libucosii_bsp.a(os_cpu_a.o)
 .debug_line    0x000000000000a2c9      0x1c9 ../recorder_nios_bsp//libucosii_bsp.a(os_cpu_c.o)
 .debug_line    0x000000000000a492       0xf4 ../recorder_nios_bsp//libucosii_bsp.a(alt_find_file.o)
 .debug_line    0x000000000000a586      0x13d ../recorder_nios_bsp//libucosii_bsp.a(alt_get_fd.o)
 .debug_line    0x000000000000a6c3       0x81 ../recorder_nios_bsp//libucosii_bsp.a(alt_icache_flush.o)
 .debug_line    0x000000000000a744       0x6b ../recorder_nios_bsp//libucosii_bsp.a(alt_irq_entry.o)
 .debug_line    0x000000000000a7af       0xdc ../recorder_nios_bsp//libucosii_bsp.a(alt_irq_handler.o)
 .debug_line    0x000000000000a88b       0xb3 ../recorder_nios_bsp//libucosii_bsp.a(alt_exception_entry.o)
 .debug_line    0x000000000000a93e       0xba ../recorder_nios_bsp//libucosii_bsp.a(alt_instruction_exception_entry.o)
 .debug_line    0x000000000000a9f8       0xe4 /home/alpha/altera/15.1/nios2eds/bin/gnu/H-x86_64-pc-linux-gnu/bin/../lib/gcc/nios2-elf/4.9.2/../../../../../H-x86_64-pc-linux-gnu/nios2-elf/lib/libc.a(lib_a-atexit.o)
 .debug_line    0x000000000000aadc      0x1f9 /home/alpha/altera/15.1/nios2eds/bin/gnu/H-x86_64-pc-linux-gnu/bin/../lib/gcc/nios2-elf/4.9.2/../../../../../H-x86_64-pc-linux-gnu/nios2-elf/lib/libc.a(lib_a-exit.o)
 .debug_line    0x000000000000acd5      0x173 /home/alpha/altera/15.1/nios2eds/bin/gnu/H-x86_64-pc-linux-gnu/bin/../lib/gcc/nios2-elf/4.9.2/../../../../../H-x86_64-pc-linux-gnu/nios2-elf/lib/libc.a(lib_a-memcmp.o)
 .debug_line    0x000000000000ae48      0x222 /home/alpha/altera/15.1/nios2eds/bin/gnu/H-x86_64-pc-linux-gnu/bin/../lib/gcc/nios2-elf/4.9.2/../../../../../H-x86_64-pc-linux-gnu/nios2-elf/lib/libc.a(lib_a-__atexit.o)
 .debug_line    0x000000000000b06a      0x23e /home/alpha/altera/15.1/nios2eds/bin/gnu/H-x86_64-pc-linux-gnu/bin/../lib/gcc/nios2-elf/4.9.2/../../../../../H-x86_64-pc-linux-gnu/nios2-elf/lib/libc.a(lib_a-__call_atexit.o)
 .debug_line    0x000000000000b2a8       0xe3 ../recorder_nios_bsp//libucosii_bsp.a(alt_exit.o)

.debug_frame    0x0000000000000000     0x3058
 *(.debug_frame)
 .debug_frame   0x0000000000000000       0x84 obj/default/LCD/Color.o
 .debug_frame   0x0000000000000084       0xf0 obj/default/LCD/lcd_core.o
 .debug_frame   0x0000000000000174      0x144 obj/default/audio/audio_core.o
 .debug_frame   0x00000000000002b8       0x60 obj/default/main.o
 .debug_frame   0x0000000000000318      0x108 /home/alpha/altera/15.1/nios2eds/bin/gnu/H-x86_64-pc-linux-gnu/bin/../lib/gcc/nios2-elf/4.9.2/../../../../../H-x86_64-pc-linux-gnu/nios2-elf/lib/libstdc++.a(class_type_info.o)
 .debug_frame   0x0000000000000420       0x20 /home/alpha/altera/15.1/nios2eds/bin/gnu/H-x86_64-pc-linux-gnu/bin/../lib/gcc/nios2-elf/4.9.2/../../../../../H-x86_64-pc-linux-gnu/nios2-elf/lib/libstdc++.a(del_op.o)
 .debug_frame   0x0000000000000440      0x114 /home/alpha/altera/15.1/nios2eds/bin/gnu/H-x86_64-pc-linux-gnu/bin/../lib/gcc/nios2-elf/4.9.2/../../../../../H-x86_64-pc-linux-gnu/nios2-elf/lib/libstdc++.a(si_class_type_info.o)
 .debug_frame   0x0000000000000554       0x7c /home/alpha/altera/15.1/nios2eds/bin/gnu/H-x86_64-pc-linux-gnu/bin/../lib/gcc/nios2-elf/4.9.2/../../../../../H-x86_64-pc-linux-gnu/nios2-elf/lib/libstdc++.a(tinfo.o)
 .debug_frame   0x00000000000005d0       0x30 /home/alpha/altera/15.1/nios2eds/bin/gnu/H-x86_64-pc-linux-gnu/bin/../lib/gcc/nios2-elf/4.9.2/../../../../../H-x86_64-pc-linux-gnu/nios2-elf/lib/libc.a(lib_a-malloc.o)
 .debug_frame   0x0000000000000600       0x54 /home/alpha/altera/15.1/nios2eds/bin/gnu/H-x86_64-pc-linux-gnu/bin/../lib/gcc/nios2-elf/4.9.2/../../../../../H-x86_64-pc-linux-gnu/nios2-elf/lib/libc.a(lib_a-mallocr.o)
 .debug_frame   0x0000000000000654       0x48 /home/alpha/altera/15.1/nios2eds/bin/gnu/H-x86_64-pc-linux-gnu/bin/../lib/gcc/nios2-elf/4.9.2/../../../../../H-x86_64-pc-linux-gnu/nios2-elf/lib/libc.a(lib_a-puts.o)
 .debug_frame   0x000000000000069c       0x38 /home/alpha/altera/15.1/nios2eds/bin/gnu/H-x86_64-pc-linux-gnu/bin/../lib/gcc/nios2-elf/4.9.2/../../../../../H-x86_64-pc-linux-gnu/nios2-elf/lib/libc.a(lib_a-sbrkr.o)
 .debug_frame   0x00000000000006d4       0x20 /home/alpha/altera/15.1/nios2eds/bin/gnu/H-x86_64-pc-linux-gnu/bin/../lib/gcc/nios2-elf/4.9.2/../../../../../H-x86_64-pc-linux-gnu/nios2-elf/lib/libc.a(lib_a-strcmp.o)
 .debug_frame   0x00000000000006f4       0x20 /home/alpha/altera/15.1/nios2eds/bin/gnu/H-x86_64-pc-linux-gnu/bin/../lib/gcc/nios2-elf/4.9.2/../../../../../H-x86_64-pc-linux-gnu/nios2-elf/lib/libc.a(lib_a-strlen.o)
 .debug_frame   0x0000000000000714       0x70 /home/alpha/altera/15.1/nios2eds/bin/gnu/H-x86_64-pc-linux-gnu/bin/../lib/gcc/nios2-elf/4.9.2/../../../../../H-x86_64-pc-linux-gnu/nios2-elf/lib/libc.a(lib_a-freer.o)
 .debug_frame   0x0000000000000784       0x7c /home/alpha/altera/15.1/nios2eds/bin/gnu/H-x86_64-pc-linux-gnu/bin/../lib/gcc/nios2-elf/4.9.2/../../../../../H-x86_64-pc-linux-gnu/nios2-elf/lib/libc.a(lib_a-fvwrite.o)
 .debug_frame   0x0000000000000800       0x20 /home/alpha/altera/15.1/nios2eds/bin/gnu/H-x86_64-pc-linux-gnu/bin/../lib/gcc/nios2-elf/4.9.2/../../../../../H-x86_64-pc-linux-gnu/nios2-elf/lib/libc.a(lib_a-memchr.o)
 .debug_frame   0x0000000000000820       0x30 /home/alpha/altera/15.1/nios2eds/bin/gnu/H-x86_64-pc-linux-gnu/bin/../lib/gcc/nios2-elf/4.9.2/../../../../../H-x86_64-pc-linux-gnu/nios2-elf/lib/libc.a(lib_a-memcpy.o)
 .debug_frame   0x0000000000000850       0x20 /home/alpha/altera/15.1/nios2eds/bin/gnu/H-x86_64-pc-linux-gnu/bin/../lib/gcc/nios2-elf/4.9.2/../../../../../H-x86_64-pc-linux-gnu/nios2-elf/lib/libc.a(lib_a-memmove.o)
 .debug_frame   0x0000000000000870       0x70 /home/alpha/altera/15.1/nios2eds/bin/gnu/H-x86_64-pc-linux-gnu/bin/../lib/gcc/nios2-elf/4.9.2/../../../../../H-x86_64-pc-linux-gnu/nios2-elf/lib/libc.a(lib_a-reallocr.o)
 .debug_frame   0x00000000000008e0       0x38 /home/alpha/altera/15.1/nios2eds/bin/gnu/H-x86_64-pc-linux-gnu/bin/../lib/gcc/nios2-elf/4.9.2/../../../../../H-x86_64-pc-linux-gnu/nios2-elf/lib/libc.a(lib_a-wsetup.o)
 .debug_frame   0x0000000000000918       0x7c /home/alpha/altera/15.1/nios2eds/bin/gnu/H-x86_64-pc-linux-gnu/bin/../lib/gcc/nios2-elf/4.9.2/../../../../../H-x86_64-pc-linux-gnu/nios2-elf/lib/libc.a(lib_a-fflush.o)
 .debug_frame   0x0000000000000994      0x15c /home/alpha/altera/15.1/nios2eds/bin/gnu/H-x86_64-pc-linux-gnu/bin/../lib/gcc/nios2-elf/4.9.2/../../../../../H-x86_64-pc-linux-gnu/nios2-elf/lib/libc.a(lib_a-findfp.o)
 .debug_frame   0x0000000000000af0       0x90 /home/alpha/altera/15.1/nios2eds/bin/gnu/H-x86_64-pc-linux-gnu/bin/../lib/gcc/nios2-elf/4.9.2/../../../../../H-x86_64-pc-linux-gnu/nios2-elf/lib/libc.a(lib_a-fwalk.o)
 .debug_frame   0x0000000000000b80       0x4c /home/alpha/altera/15.1/nios2eds/bin/gnu/H-x86_64-pc-linux-gnu/bin/../lib/gcc/nios2-elf/4.9.2/../../../../../H-x86_64-pc-linux-gnu/nios2-elf/lib/libc.a(lib_a-makebuf.o)
 .debug_frame   0x0000000000000bcc       0x20 /home/alpha/altera/15.1/nios2eds/bin/gnu/H-x86_64-pc-linux-gnu/bin/../lib/gcc/nios2-elf/4.9.2/../../../../../H-x86_64-pc-linux-gnu/nios2-elf/lib/libc.a(lib_a-memset.o)
 .debug_frame   0x0000000000000bec       0xb4 /home/alpha/altera/15.1/nios2eds/bin/gnu/H-x86_64-pc-linux-gnu/bin/../lib/gcc/nios2-elf/4.9.2/../../../../../H-x86_64-pc-linux-gnu/nios2-elf/lib/libc.a(lib_a-stdio.o)
 .debug_frame   0x0000000000000ca0       0x38 /home/alpha/altera/15.1/nios2eds/bin/gnu/H-x86_64-pc-linux-gnu/bin/../lib/gcc/nios2-elf/4.9.2/../../../../../H-x86_64-pc-linux-gnu/nios2-elf/lib/libc.a(lib_a-writer.o)
 .debug_frame   0x0000000000000cd8       0x38 /home/alpha/altera/15.1/nios2eds/bin/gnu/H-x86_64-pc-linux-gnu/bin/../lib/gcc/nios2-elf/4.9.2/../../../../../H-x86_64-pc-linux-gnu/nios2-elf/lib/libc.a(closer.o)
 .debug_frame   0x0000000000000d10       0x54 /home/alpha/altera/15.1/nios2eds/bin/gnu/H-x86_64-pc-linux-gnu/bin/../lib/gcc/nios2-elf/4.9.2/../../../../../H-x86_64-pc-linux-gnu/nios2-elf/lib/libc.a(lib_a-fclose.o)
 .debug_frame   0x0000000000000d64       0x38 /home/alpha/altera/15.1/nios2eds/bin/gnu/H-x86_64-pc-linux-gnu/bin/../lib/gcc/nios2-elf/4.9.2/../../../../../H-x86_64-pc-linux-gnu/nios2-elf/lib/libc.a(lib_a-fstatr.o)
 .debug_frame   0x0000000000000d9c       0x38 /home/alpha/altera/15.1/nios2eds/bin/gnu/H-x86_64-pc-linux-gnu/bin/../lib/gcc/nios2-elf/4.9.2/../../../../../H-x86_64-pc-linux-gnu/nios2-elf/lib/libc.a(lib_a-isattyr.o)
 .debug_frame   0x0000000000000dd4       0x38 /home/alpha/altera/15.1/nios2eds/bin/gnu/H-x86_64-pc-linux-gnu/bin/../lib/gcc/nios2-elf/4.9.2/../../../../../H-x86_64-pc-linux-gnu/nios2-elf/lib/libc.a(lib_a-lseekr.o)
 .debug_frame   0x0000000000000e0c       0x38 /home/alpha/altera/15.1/nios2eds/bin/gnu/H-x86_64-pc-linux-gnu/bin/../lib/gcc/nios2-elf/4.9.2/../../../../../H-x86_64-pc-linux-gnu/nios2-elf/lib/libc.a(lib_a-readr.o)
 .debug_frame   0x0000000000000e44       0x8c /home/alpha/altera/15.1/nios2eds/bin/gnu/H-x86_64-pc-linux-gnu/bin/../lib/gcc/nios2-elf/4.9.2/libgcc.a(lib2-divmod.o)
 .debug_frame   0x0000000000000ed0       0x60 ../recorder_nios_bsp//libucosii_bsp.a(alt_close.o)
 .debug_frame   0x0000000000000f30       0x34 ../recorder_nios_bsp//libucosii_bsp.a(alt_dev.o)
 .debug_frame   0x0000000000000f64       0x60 ../recorder_nios_bsp//libucosii_bsp.a(alt_fstat.o)
 .debug_frame   0x0000000000000fc4       0x60 ../recorder_nios_bsp//libucosii_bsp.a(alt_isatty.o)
 .debug_frame   0x0000000000001024       0x5c ../recorder_nios_bsp//libucosii_bsp.a(alt_load.o)
 .debug_frame   0x0000000000001080       0x60 ../recorder_nios_bsp//libucosii_bsp.a(alt_lseek.o)
 .debug_frame   0x00000000000010e0       0x2c ../recorder_nios_bsp//libucosii_bsp.a(alt_main.o)
 .debug_frame   0x000000000000110c       0x60 ../recorder_nios_bsp//libucosii_bsp.a(alt_read.o)
 .debug_frame   0x000000000000116c       0x34 ../recorder_nios_bsp//libucosii_bsp.a(alt_release_fd.o)
 .debug_frame   0x00000000000011a0       0x34 ../recorder_nios_bsp//libucosii_bsp.a(alt_sbrk.o)
 .debug_frame   0x00000000000011d4       0x60 ../recorder_nios_bsp//libucosii_bsp.a(alt_write.o)
 .debug_frame   0x0000000000001234       0x60 ../recorder_nios_bsp//libucosii_bsp.a(alt_env_lock.o)
 .debug_frame   0x0000000000001294       0x64 ../recorder_nios_bsp//libucosii_bsp.a(alt_malloc_lock.o)
 .debug_frame   0x00000000000012f8      0x530 ../recorder_nios_bsp//libucosii_bsp.a(os_core.o)
 .debug_frame   0x0000000000001828       0x34 ../recorder_nios_bsp//libucosii_bsp.a(os_dbg.o)
 .debug_frame   0x000000000000185c      0x200 ../recorder_nios_bsp//libucosii_bsp.a(os_flag.o)
 .debug_frame   0x0000000000001a5c      0x118 ../recorder_nios_bsp//libucosii_bsp.a(os_mem.o)
 .debug_frame   0x0000000000001b74      0x1bc ../recorder_nios_bsp//libucosii_bsp.a(os_q.o)
 .debug_frame   0x0000000000001d30      0x144 ../recorder_nios_bsp//libucosii_bsp.a(os_sem.o)
 .debug_frame   0x0000000000001e74      0x1e4 ../recorder_nios_bsp//libucosii_bsp.a(os_task.o)
 .debug_frame   0x0000000000002058       0xd8 ../recorder_nios_bsp//libucosii_bsp.a(os_time.o)
 .debug_frame   0x0000000000002130       0x88 ../recorder_nios_bsp//libucosii_bsp.a(alt_sys_init.o)
 .debug_frame   0x00000000000021b8       0xb0 ../recorder_nios_bsp//libucosii_bsp.a(altera_avalon_jtag_uart_fd.o)
 .debug_frame   0x0000000000002268       0xac ../recorder_nios_bsp//libucosii_bsp.a(altera_avalon_jtag_uart_init.o)
 .debug_frame   0x0000000000002314       0x34 ../recorder_nios_bsp//libucosii_bsp.a(altera_avalon_jtag_uart_ioctl.o)
 .debug_frame   0x0000000000002348       0x38 ../recorder_nios_bsp//libucosii_bsp.a(altera_avalon_jtag_uart_read.o)
 .debug_frame   0x0000000000002380       0x38 ../recorder_nios_bsp//libucosii_bsp.a(altera_avalon_jtag_uart_write.o)
 .debug_frame   0x00000000000023b8       0x60 ../recorder_nios_bsp//libucosii_bsp.a(altera_avalon_timer_sc.o)
 .debug_frame   0x0000000000002418      0x2ac ../recorder_nios_bsp//libucosii_bsp.a(altera_up_avalon_audio.o)
 .debug_frame   0x00000000000026c4      0x270 ../recorder_nios_bsp//libucosii_bsp.a(altera_up_avalon_video_pixel_buffer_dma.o)
 .debug_frame   0x0000000000002934       0x34 ../recorder_nios_bsp//libucosii_bsp.a(alt_alarm_start.o)
 .debug_frame   0x0000000000002968       0x34 ../recorder_nios_bsp//libucosii_bsp.a(alt_dcache_flush_all.o)
 .debug_frame   0x000000000000299c       0x60 ../recorder_nios_bsp//libucosii_bsp.a(alt_dev_llist_insert.o)
 .debug_frame   0x00000000000029fc       0x38 ../recorder_nios_bsp//libucosii_bsp.a(alt_do_ctors.o)
 .debug_frame   0x0000000000002a34       0x38 ../recorder_nios_bsp//libucosii_bsp.a(alt_do_dtors.o)
 .debug_frame   0x0000000000002a6c       0x38 ../recorder_nios_bsp//libucosii_bsp.a(alt_find_dev.o)
 .debug_frame   0x0000000000002aa4       0x38 ../recorder_nios_bsp//libucosii_bsp.a(alt_icache_flush_all.o)
 .debug_frame   0x0000000000002adc       0x60 ../recorder_nios_bsp//libucosii_bsp.a(alt_io_redirect.o)
 .debug_frame   0x0000000000002b3c       0x34 ../recorder_nios_bsp//libucosii_bsp.a(alt_irq_register.o)
 .debug_frame   0x0000000000002b70       0x84 ../recorder_nios_bsp//libucosii_bsp.a(alt_open.o)
 .debug_frame   0x0000000000002bf4       0x5c ../recorder_nios_bsp//libucosii_bsp.a(alt_tick.o)
 .debug_frame   0x0000000000002c50       0x34 ../recorder_nios_bsp//libucosii_bsp.a(altera_nios2_gen2_irq.o)
 .debug_frame   0x0000000000002c84      0x17c ../recorder_nios_bsp//libucosii_bsp.a(os_cpu_c.o)
 .debug_frame   0x0000000000002e00       0x38 ../recorder_nios_bsp//libucosii_bsp.a(alt_find_file.o)
 .debug_frame   0x0000000000002e38       0x38 ../recorder_nios_bsp//libucosii_bsp.a(alt_get_fd.o)
 .debug_frame   0x0000000000002e70       0x34 ../recorder_nios_bsp//libucosii_bsp.a(alt_icache_flush.o)
 .debug_frame   0x0000000000002ea4       0x38 ../recorder_nios_bsp//libucosii_bsp.a(alt_irq_handler.o)
 .debug_frame   0x0000000000002edc       0x5c ../recorder_nios_bsp//libucosii_bsp.a(alt_instruction_exception_entry.o)
 .debug_frame   0x0000000000002f38       0x20 /home/alpha/altera/15.1/nios2eds/bin/gnu/H-x86_64-pc-linux-gnu/bin/../lib/gcc/nios2-elf/4.9.2/../../../../../H-x86_64-pc-linux-gnu/nios2-elf/lib/libc.a(lib_a-atexit.o)
 .debug_frame   0x0000000000002f58       0x28 /home/alpha/altera/15.1/nios2eds/bin/gnu/H-x86_64-pc-linux-gnu/bin/../lib/gcc/nios2-elf/4.9.2/../../../../../H-x86_64-pc-linux-gnu/nios2-elf/lib/libc.a(lib_a-exit.o)
 .debug_frame   0x0000000000002f80       0x20 /home/alpha/altera/15.1/nios2eds/bin/gnu/H-x86_64-pc-linux-gnu/bin/../lib/gcc/nios2-elf/4.9.2/../../../../../H-x86_64-pc-linux-gnu/nios2-elf/lib/libc.a(lib_a-memcmp.o)
 .debug_frame   0x0000000000002fa0       0x38 /home/alpha/altera/15.1/nios2eds/bin/gnu/H-x86_64-pc-linux-gnu/bin/../lib/gcc/nios2-elf/4.9.2/../../../../../H-x86_64-pc-linux-gnu/nios2-elf/lib/libc.a(lib_a-__atexit.o)
 .debug_frame   0x0000000000002fd8       0x54 /home/alpha/altera/15.1/nios2eds/bin/gnu/H-x86_64-pc-linux-gnu/bin/../lib/gcc/nios2-elf/4.9.2/../../../../../H-x86_64-pc-linux-gnu/nios2-elf/lib/libc.a(lib_a-__call_atexit.o)
 .debug_frame   0x000000000000302c       0x2c ../recorder_nios_bsp//libucosii_bsp.a(alt_exit.o)

.debug_str      0x0000000000000000     0x5cf5
 *(.debug_str)
 .debug_str     0x0000000000000000       0xbb obj/default/LCD/font/arial18.o
 .debug_str     0x00000000000000bb       0x33 obj/default/LCD/font/arial22.o
                                         0xbb (size before relaxing)
 .debug_str     0x00000000000000ee       0x33 obj/default/LCD/font/arial40.o
                                         0xbb (size before relaxing)
 .debug_str     0x0000000000000121       0xac obj/default/LCD/Color.o
                                         0xee (size before relaxing)
 .debug_str     0x00000000000001cd      0x6b9 obj/default/LCD/lcd_core.o
                                        0x86f (size before relaxing)
 .debug_str     0x0000000000000886      0xe72 obj/default/audio/audio_core.o
                                       0x16e3 (size before relaxing)
 .debug_str     0x00000000000016f8       0xb8 obj/default/main.o
                                       0x15a4 (size before relaxing)
 .debug_str     0x00000000000017b0      0x7ad /home/alpha/altera/15.1/nios2eds/bin/gnu/H-x86_64-pc-linux-gnu/bin/../lib/gcc/nios2-elf/4.9.2/../../../../../H-x86_64-pc-linux-gnu/nios2-elf/lib/libstdc++.a(class_type_info.o)
                                        0x81a (size before relaxing)
 .debug_str     0x0000000000001f5d       0xad /home/alpha/altera/15.1/nios2eds/bin/gnu/H-x86_64-pc-linux-gnu/bin/../lib/gcc/nios2-elf/4.9.2/../../../../../H-x86_64-pc-linux-gnu/nios2-elf/lib/libstdc++.a(del_op.o)
                                        0x2a4 (size before relaxing)
 .debug_str     0x000000000000200a      0x2c0 /home/alpha/altera/15.1/nios2eds/bin/gnu/H-x86_64-pc-linux-gnu/bin/../lib/gcc/nios2-elf/4.9.2/../../../../../H-x86_64-pc-linux-gnu/nios2-elf/lib/libstdc++.a(si_class_type_info.o)
                                        0x6b6 (size before relaxing)
 .debug_str     0x00000000000022ca      0x23c /home/alpha/altera/15.1/nios2eds/bin/gnu/H-x86_64-pc-linux-gnu/bin/../lib/gcc/nios2-elf/4.9.2/../../../../../H-x86_64-pc-linux-gnu/nios2-elf/lib/libstdc++.a(tinfo.o)
                                        0x42d (size before relaxing)
 .debug_str     0x0000000000002506      0x13b /home/alpha/altera/15.1/nios2eds/bin/gnu/H-x86_64-pc-linux-gnu/bin/../lib/gcc/nios2-elf/4.9.2/../../../../../H-x86_64-pc-linux-gnu/nios2-elf/lib/libc.a(lib_a-malloc.o)
                                        0x5a2 (size before relaxing)
 .debug_str     0x0000000000002641      0x223 /home/alpha/altera/15.1/nios2eds/bin/gnu/H-x86_64-pc-linux-gnu/bin/../lib/gcc/nios2-elf/4.9.2/../../../../../H-x86_64-pc-linux-gnu/nios2-elf/lib/libc.a(lib_a-mallocr.o)
                                        0x79d (size before relaxing)
 .debug_str     0x0000000000002864      0x113 /home/alpha/altera/15.1/nios2eds/bin/gnu/H-x86_64-pc-linux-gnu/bin/../lib/gcc/nios2-elf/4.9.2/../../../../../H-x86_64-pc-linux-gnu/nios2-elf/lib/libc.a(lib_a-puts.o)
                                        0x5dd (size before relaxing)
 .debug_str     0x0000000000002977       0xc6 /home/alpha/altera/15.1/nios2eds/bin/gnu/H-x86_64-pc-linux-gnu/bin/../lib/gcc/nios2-elf/4.9.2/../../../../../H-x86_64-pc-linux-gnu/nios2-elf/lib/libc.a(lib_a-sbrkr.o)
                                        0x584 (size before relaxing)
 .debug_str     0x0000000000002a3d       0xbf /home/alpha/altera/15.1/nios2eds/bin/gnu/H-x86_64-pc-linux-gnu/bin/../lib/gcc/nios2-elf/4.9.2/../../../../../H-x86_64-pc-linux-gnu/nios2-elf/lib/libc.a(lib_a-strcmp.o)
                                        0x1b6 (size before relaxing)
 .debug_str     0x0000000000002afc       0x47 /home/alpha/altera/15.1/nios2eds/bin/gnu/H-x86_64-pc-linux-gnu/bin/../lib/gcc/nios2-elf/4.9.2/../../../../../H-x86_64-pc-linux-gnu/nios2-elf/lib/libc.a(lib_a-strlen.o)
                                        0x1d0 (size before relaxing)
 .debug_str     0x0000000000002b43       0x34 /home/alpha/altera/15.1/nios2eds/bin/gnu/H-x86_64-pc-linux-gnu/bin/../lib/gcc/nios2-elf/4.9.2/../../../../../H-x86_64-pc-linux-gnu/nios2-elf/lib/libc.a(lib_a-freer.o)
                                        0x6e7 (size before relaxing)
 .debug_str     0x0000000000002b77       0x79 /home/alpha/altera/15.1/nios2eds/bin/gnu/H-x86_64-pc-linux-gnu/bin/../lib/gcc/nios2-elf/4.9.2/../../../../../H-x86_64-pc-linux-gnu/nios2-elf/lib/libc.a(lib_a-fvwrite.o)
                                        0x620 (size before relaxing)
 .debug_str     0x0000000000002bf0       0x58 /home/alpha/altera/15.1/nios2eds/bin/gnu/H-x86_64-pc-linux-gnu/bin/../lib/gcc/nios2-elf/4.9.2/../../../../../H-x86_64-pc-linux-gnu/nios2-elf/lib/libc.a(lib_a-impure.o)
                                        0x58e (size before relaxing)
 .debug_str     0x0000000000002c48       0x3c /home/alpha/altera/15.1/nios2eds/bin/gnu/H-x86_64-pc-linux-gnu/bin/../lib/gcc/nios2-elf/4.9.2/../../../../../H-x86_64-pc-linux-gnu/nios2-elf/lib/libc.a(lib_a-int_errno.o)
                                        0x1b6 (size before relaxing)
 .debug_str     0x0000000000002c84       0x4f /home/alpha/altera/15.1/nios2eds/bin/gnu/H-x86_64-pc-linux-gnu/bin/../lib/gcc/nios2-elf/4.9.2/../../../../../H-x86_64-pc-linux-gnu/nios2-elf/lib/libc.a(lib_a-memchr.o)
                                        0x1d7 (size before relaxing)
 .debug_str     0x0000000000002cd3       0x61 /home/alpha/altera/15.1/nios2eds/bin/gnu/H-x86_64-pc-linux-gnu/bin/../lib/gcc/nios2-elf/4.9.2/../../../../../H-x86_64-pc-linux-gnu/nios2-elf/lib/libc.a(lib_a-memcpy.o)
                                        0x1e4 (size before relaxing)
 .debug_str     0x0000000000002d34       0x44 /home/alpha/altera/15.1/nios2eds/bin/gnu/H-x86_64-pc-linux-gnu/bin/../lib/gcc/nios2-elf/4.9.2/../../../../../H-x86_64-pc-linux-gnu/nios2-elf/lib/libc.a(lib_a-memmove.o)
                                        0x1f0 (size before relaxing)
 .debug_str     0x0000000000002d78       0x49 /home/alpha/altera/15.1/nios2eds/bin/gnu/H-x86_64-pc-linux-gnu/bin/../lib/gcc/nios2-elf/4.9.2/../../../../../H-x86_64-pc-linux-gnu/nios2-elf/lib/libc.a(lib_a-reallocr.o)
                                        0x66f (size before relaxing)
 .debug_str     0x0000000000002dc1       0x5e /home/alpha/altera/15.1/nios2eds/bin/gnu/H-x86_64-pc-linux-gnu/bin/../lib/gcc/nios2-elf/4.9.2/../../../../../H-x86_64-pc-linux-gnu/nios2-elf/lib/libc.a(lib_a-wsetup.o)
                                        0x5ad (size before relaxing)
 .debug_str     0x0000000000002e1f       0x62 /home/alpha/altera/15.1/nios2eds/bin/gnu/H-x86_64-pc-linux-gnu/bin/../lib/gcc/nios2-elf/4.9.2/../../../../../H-x86_64-pc-linux-gnu/nios2-elf/lib/libc.a(lib_a-fflush.o)
                                        0x5ee (size before relaxing)
 .debug_str     0x0000000000002e81      0x10f /home/alpha/altera/15.1/nios2eds/bin/gnu/H-x86_64-pc-linux-gnu/bin/../lib/gcc/nios2-elf/4.9.2/../../../../../H-x86_64-pc-linux-gnu/nios2-elf/lib/libc.a(lib_a-findfp.o)
                                        0x6a8 (size before relaxing)
 .debug_str     0x0000000000002f90       0x47 /home/alpha/altera/15.1/nios2eds/bin/gnu/H-x86_64-pc-linux-gnu/bin/../lib/gcc/nios2-elf/4.9.2/../../../../../H-x86_64-pc-linux-gnu/nios2-elf/lib/libc.a(lib_a-fwalk.o)
                                        0x593 (size before relaxing)
 .debug_str     0x0000000000002fd7      0x121 /home/alpha/altera/15.1/nios2eds/bin/gnu/H-x86_64-pc-linux-gnu/bin/../lib/gcc/nios2-elf/4.9.2/../../../../../H-x86_64-pc-linux-gnu/nios2-elf/lib/libc.a(lib_a-makebuf.o)
                                        0x690 (size before relaxing)
 .debug_str     0x00000000000030f8       0x3a /home/alpha/altera/15.1/nios2eds/bin/gnu/H-x86_64-pc-linux-gnu/bin/../lib/gcc/nios2-elf/4.9.2/../../../../../H-x86_64-pc-linux-gnu/nios2-elf/lib/libc.a(lib_a-memset.o)
                                        0x1d1 (size before relaxing)
 .debug_str     0x0000000000003132       0x98 /home/alpha/altera/15.1/nios2eds/bin/gnu/H-x86_64-pc-linux-gnu/bin/../lib/gcc/nios2-elf/4.9.2/../../../../../H-x86_64-pc-linux-gnu/nios2-elf/lib/libc.a(lib_a-stdio.o)
                                        0x5e9 (size before relaxing)
 .debug_str     0x00000000000031ca       0x39 /home/alpha/altera/15.1/nios2eds/bin/gnu/H-x86_64-pc-linux-gnu/bin/../lib/gcc/nios2-elf/4.9.2/../../../../../H-x86_64-pc-linux-gnu/nios2-elf/lib/libc.a(lib_a-writer.o)
                                        0x588 (size before relaxing)
 .debug_str     0x0000000000003203       0x39 /home/alpha/altera/15.1/nios2eds/bin/gnu/H-x86_64-pc-linux-gnu/bin/../lib/gcc/nios2-elf/4.9.2/../../../../../H-x86_64-pc-linux-gnu/nios2-elf/lib/libc.a(closer.o)
                                        0x578 (size before relaxing)
 .debug_str     0x000000000000323c       0x48 /home/alpha/altera/15.1/nios2eds/bin/gnu/H-x86_64-pc-linux-gnu/bin/../lib/gcc/nios2-elf/4.9.2/../../../../../H-x86_64-pc-linux-gnu/nios2-elf/lib/libc.a(lib_a-fclose.o)
                                        0x5db (size before relaxing)
 .debug_str     0x0000000000003284       0x3f /home/alpha/altera/15.1/nios2eds/bin/gnu/H-x86_64-pc-linux-gnu/bin/../lib/gcc/nios2-elf/4.9.2/../../../../../H-x86_64-pc-linux-gnu/nios2-elf/lib/libc.a(lib_a-fstatr.o)
                                        0x664 (size before relaxing)
 .debug_str     0x00000000000032c3       0x41 /home/alpha/altera/15.1/nios2eds/bin/gnu/H-x86_64-pc-linux-gnu/bin/../lib/gcc/nios2-elf/4.9.2/../../../../../H-x86_64-pc-linux-gnu/nios2-elf/lib/libc.a(lib_a-isattyr.o)
                                        0x57b (size before relaxing)
 .debug_str     0x0000000000003304       0x39 /home/alpha/altera/15.1/nios2eds/bin/gnu/H-x86_64-pc-linux-gnu/bin/../lib/gcc/nios2-elf/4.9.2/../../../../../H-x86_64-pc-linux-gnu/nios2-elf/lib/libc.a(lib_a-lseekr.o)
                                        0x585 (size before relaxing)
 .debug_str     0x000000000000333d       0x38 /home/alpha/altera/15.1/nios2eds/bin/gnu/H-x86_64-pc-linux-gnu/bin/../lib/gcc/nios2-elf/4.9.2/../../../../../H-x86_64-pc-linux-gnu/nios2-elf/lib/libc.a(lib_a-readr.o)
                                        0x585 (size before relaxing)
 .debug_str     0x0000000000003375      0x16c /home/alpha/altera/15.1/nios2eds/bin/gnu/H-x86_64-pc-linux-gnu/bin/../lib/gcc/nios2-elf/4.9.2/libgcc.a(lib2-divmod.o)
                                        0x1b7 (size before relaxing)
 .debug_str     0x00000000000034e1       0xb2 ../recorder_nios_bsp//libucosii_bsp.a(alt_close.o)
                                        0x242 (size before relaxing)
 .debug_str     0x0000000000003593       0xb7 ../recorder_nios_bsp//libucosii_bsp.a(alt_dev.o)
                                        0x3b0 (size before relaxing)
 .debug_str     0x000000000000364a       0x14 ../recorder_nios_bsp//libucosii_bsp.a(alt_errno.o)
                                        0x12b (size before relaxing)
 .debug_str     0x000000000000365e       0x14 ../recorder_nios_bsp//libucosii_bsp.a(alt_fstat.o)
                                        0x323 (size before relaxing)
 .debug_str     0x0000000000003672       0x15 ../recorder_nios_bsp//libucosii_bsp.a(alt_isatty.o)
                                        0x32b (size before relaxing)
 .debug_str     0x0000000000003687       0xe9 ../recorder_nios_bsp//libucosii_bsp.a(alt_load.o)
                                        0x1f8 (size before relaxing)
 .debug_str     0x0000000000003770       0x14 ../recorder_nios_bsp//libucosii_bsp.a(alt_lseek.o)
                                        0x248 (size before relaxing)
 .debug_str     0x0000000000003784       0x5d ../recorder_nios_bsp//libucosii_bsp.a(alt_main.o)
                                        0x267 (size before relaxing)
 .debug_str     0x00000000000037e1       0x13 ../recorder_nios_bsp//libucosii_bsp.a(alt_read.o)
                                        0x32e (size before relaxing)
 .debug_str     0x00000000000037f4       0x28 ../recorder_nios_bsp//libucosii_bsp.a(alt_release_fd.o)
                                        0x22c (size before relaxing)
 .debug_str     0x000000000000381c       0x98 ../recorder_nios_bsp//libucosii_bsp.a(alt_sbrk.o)
                                        0x1e3 (size before relaxing)
 .debug_str     0x00000000000038b4       0x14 ../recorder_nios_bsp//libucosii_bsp.a(alt_write.o)
                                        0x32f (size before relaxing)
 .debug_str     0x00000000000038c8      0x23f ../recorder_nios_bsp//libucosii_bsp.a(alt_env_lock.o)
                                        0x7cf (size before relaxing)
 .debug_str     0x0000000000003b07       0x36 ../recorder_nios_bsp//libucosii_bsp.a(alt_malloc_lock.o)
                                        0x831 (size before relaxing)
 .debug_str     0x0000000000003b3d      0x529 ../recorder_nios_bsp//libucosii_bsp.a(os_core.o)
                                        0x95d (size before relaxing)
 .debug_str     0x0000000000004066      0x2e5 ../recorder_nios_bsp//libucosii_bsp.a(os_dbg.o)
                                        0x8cc (size before relaxing)
 .debug_str     0x000000000000434b      0x136 ../recorder_nios_bsp//libucosii_bsp.a(os_flag.o)
                                        0x5f9 (size before relaxing)
 .debug_str     0x0000000000004481       0xcf ../recorder_nios_bsp//libucosii_bsp.a(os_mem.o)
                                        0x302 (size before relaxing)
 .debug_str     0x0000000000004550       0xc0 ../recorder_nios_bsp//libucosii_bsp.a(os_q.o)
                                        0x57c (size before relaxing)
 .debug_str     0x0000000000004610       0x77 ../recorder_nios_bsp//libucosii_bsp.a(os_sem.o)
                                        0x505 (size before relaxing)
 .debug_str     0x0000000000004687      0x108 ../recorder_nios_bsp//libucosii_bsp.a(os_task.o)
                                        0x608 (size before relaxing)
 .debug_str     0x000000000000478f       0x5f ../recorder_nios_bsp//libucosii_bsp.a(os_time.o)
                                        0x4a8 (size before relaxing)
 .debug_str     0x00000000000047ee      0x294 ../recorder_nios_bsp//libucosii_bsp.a(alt_sys_init.o)
                                        0x66a (size before relaxing)
 .debug_str     0x0000000000004a82       0xac ../recorder_nios_bsp//libucosii_bsp.a(altera_avalon_jtag_uart_fd.o)
                                        0x49b (size before relaxing)
 .debug_str     0x0000000000004b2e       0xf6 ../recorder_nios_bsp//libucosii_bsp.a(altera_avalon_jtag_uart_init.o)
                                        0x462 (size before relaxing)
 .debug_str     0x0000000000004c24       0x4a ../recorder_nios_bsp//libucosii_bsp.a(altera_avalon_jtag_uart_ioctl.o)
                                        0x38a (size before relaxing)
 .debug_str     0x0000000000004c6e       0x63 ../recorder_nios_bsp//libucosii_bsp.a(altera_avalon_jtag_uart_read.o)
                                        0x3fd (size before relaxing)
 .debug_str     0x0000000000004cd1       0x4a ../recorder_nios_bsp//libucosii_bsp.a(altera_avalon_jtag_uart_write.o)
                                        0x3fe (size before relaxing)
 .debug_str     0x0000000000004d1b       0x66 ../recorder_nios_bsp//libucosii_bsp.a(altera_avalon_timer_sc.o)
                                        0x252 (size before relaxing)
 .debug_str     0x0000000000004d81      0x247 ../recorder_nios_bsp//libucosii_bsp.a(altera_up_avalon_audio.o)
                                        0x474 (size before relaxing)
 .debug_str     0x0000000000004fc8      0x215 ../recorder_nios_bsp//libucosii_bsp.a(altera_up_avalon_video_pixel_buffer_dma.o)
                                        0x548 (size before relaxing)
 .debug_str     0x00000000000051dd       0x59 ../recorder_nios_bsp//libucosii_bsp.a(alt_alarm_start.o)
                                        0x285 (size before relaxing)
 .debug_str     0x0000000000005236       0x34 ../recorder_nios_bsp//libucosii_bsp.a(alt_dcache_flush_all.o)
                                        0x13b (size before relaxing)
 .debug_str     0x000000000000526a       0x34 ../recorder_nios_bsp//libucosii_bsp.a(alt_dev_llist_insert.o)
                                        0x1b2 (size before relaxing)
 .debug_str     0x000000000000529e       0x48 ../recorder_nios_bsp//libucosii_bsp.a(alt_do_ctors.o)
                                         0xc2 (size before relaxing)
 .debug_str     0x00000000000052e6       0x4c ../recorder_nios_bsp//libucosii_bsp.a(alt_do_dtors.o)
                                         0xc1 (size before relaxing)
 .debug_str     0x0000000000005332       0x24 ../recorder_nios_bsp//libucosii_bsp.a(alt_find_dev.o)
                                        0x223 (size before relaxing)
 .debug_str     0x0000000000005356       0x34 ../recorder_nios_bsp//libucosii_bsp.a(alt_icache_flush_all.o)
                                        0x13b (size before relaxing)
 .debug_str     0x000000000000538a       0x56 ../recorder_nios_bsp//libucosii_bsp.a(alt_io_redirect.o)
                                        0x34d (size before relaxing)
 .debug_str     0x00000000000053e0       0x70 ../recorder_nios_bsp//libucosii_bsp.a(alt_irq_register.o)
                                        0x216 (size before relaxing)
 .debug_str     0x0000000000005450       0x17 ../recorder_nios_bsp//libucosii_bsp.a(alt_irq_vars.o)
                                        0x12c (size before relaxing)
 .debug_str     0x0000000000005467       0x29 ../recorder_nios_bsp//libucosii_bsp.a(alt_open.o)
                                        0x27a (size before relaxing)
 .debug_str     0x0000000000005490       0x4a ../recorder_nios_bsp//libucosii_bsp.a(alt_tick.o)
                                        0x266 (size before relaxing)
 .debug_str     0x00000000000054da       0x3b ../recorder_nios_bsp//libucosii_bsp.a(altera_nios2_gen2_irq.o)
                                        0x16b (size before relaxing)
 .debug_str     0x0000000000005515       0xd5 ../recorder_nios_bsp//libucosii_bsp.a(os_cpu_c.o)
                                        0x844 (size before relaxing)
 .debug_str     0x00000000000055ea       0x26 ../recorder_nios_bsp//libucosii_bsp.a(alt_find_file.o)
                                        0x231 (size before relaxing)
 .debug_str     0x0000000000005610       0x30 ../recorder_nios_bsp//libucosii_bsp.a(alt_get_fd.o)
                                        0x2cf (size before relaxing)
 .debug_str     0x0000000000005640       0x2c ../recorder_nios_bsp//libucosii_bsp.a(alt_icache_flush.o)
                                        0x141 (size before relaxing)
 .debug_str     0x000000000000566c       0x3a ../recorder_nios_bsp//libucosii_bsp.a(alt_irq_handler.o)
                                        0x1c6 (size before relaxing)
 .debug_str     0x00000000000056a6      0x48b ../recorder_nios_bsp//libucosii_bsp.a(alt_instruction_exception_entry.o)
                                        0x585 (size before relaxing)
 .debug_str     0x0000000000005b31       0x7e /home/alpha/altera/15.1/nios2eds/bin/gnu/H-x86_64-pc-linux-gnu/bin/../lib/gcc/nios2-elf/4.9.2/../../../../../H-x86_64-pc-linux-gnu/nios2-elf/lib/libc.a(lib_a-atexit.o)
                                        0x1fa (size before relaxing)
 .debug_str     0x0000000000005baf       0x49 /home/alpha/altera/15.1/nios2eds/bin/gnu/H-x86_64-pc-linux-gnu/bin/../lib/gcc/nios2-elf/4.9.2/../../../../../H-x86_64-pc-linux-gnu/nios2-elf/lib/libc.a(lib_a-exit.o)
                                        0x597 (size before relaxing)
 .debug_str     0x0000000000005bf8       0x3a /home/alpha/altera/15.1/nios2eds/bin/gnu/H-x86_64-pc-linux-gnu/bin/../lib/gcc/nios2-elf/4.9.2/../../../../../H-x86_64-pc-linux-gnu/nios2-elf/lib/libc.a(lib_a-memcmp.o)
                                        0x1bd (size before relaxing)
 .debug_str     0x0000000000005c32       0x3c /home/alpha/altera/15.1/nios2eds/bin/gnu/H-x86_64-pc-linux-gnu/bin/../lib/gcc/nios2-elf/4.9.2/../../../../../H-x86_64-pc-linux-gnu/nios2-elf/lib/libc.a(lib_a-__atexit.o)
                                        0x5d6 (size before relaxing)
 .debug_str     0x0000000000005c6e       0x5d /home/alpha/altera/15.1/nios2eds/bin/gnu/H-x86_64-pc-linux-gnu/bin/../lib/gcc/nios2-elf/4.9.2/../../../../../H-x86_64-pc-linux-gnu/nios2-elf/lib/libc.a(lib_a-__call_atexit.o)
                                        0x5bb (size before relaxing)
 .debug_str     0x0000000000005ccb       0x2a ../recorder_nios_bsp//libucosii_bsp.a(alt_exit.o)
                                        0x19a (size before relaxing)

.debug_loc      0x0000000000000000     0x5fc9
 *(.debug_loc)
 .debug_loc     0x0000000000000000      0x520 obj/default/LCD/lcd_core.o
 .debug_loc     0x0000000000000520       0x42 obj/default/main.o
 .debug_loc     0x0000000000000562      0x95b /home/alpha/altera/15.1/nios2eds/bin/gnu/H-x86_64-pc-linux-gnu/bin/../lib/gcc/nios2-elf/4.9.2/../../../../../H-x86_64-pc-linux-gnu/nios2-elf/lib/libstdc++.a(class_type_info.o)
 .debug_loc     0x0000000000000ebd       0x21 /home/alpha/altera/15.1/nios2eds/bin/gnu/H-x86_64-pc-linux-gnu/bin/../lib/gcc/nios2-elf/4.9.2/../../../../../H-x86_64-pc-linux-gnu/nios2-elf/lib/libstdc++.a(del_op.o)
 .debug_loc     0x0000000000000ede      0x850 /home/alpha/altera/15.1/nios2eds/bin/gnu/H-x86_64-pc-linux-gnu/bin/../lib/gcc/nios2-elf/4.9.2/../../../../../H-x86_64-pc-linux-gnu/nios2-elf/lib/libstdc++.a(si_class_type_info.o)
 .debug_loc     0x000000000000172e       0x63 /home/alpha/altera/15.1/nios2eds/bin/gnu/H-x86_64-pc-linux-gnu/bin/../lib/gcc/nios2-elf/4.9.2/../../../../../H-x86_64-pc-linux-gnu/nios2-elf/lib/libstdc++.a(tinfo.o)
 .debug_loc     0x0000000000001791       0x58 /home/alpha/altera/15.1/nios2eds/bin/gnu/H-x86_64-pc-linux-gnu/bin/../lib/gcc/nios2-elf/4.9.2/../../../../../H-x86_64-pc-linux-gnu/nios2-elf/lib/libc.a(lib_a-malloc.o)
 .debug_loc     0x00000000000017e9      0xbad /home/alpha/altera/15.1/nios2eds/bin/gnu/H-x86_64-pc-linux-gnu/bin/../lib/gcc/nios2-elf/4.9.2/../../../../../H-x86_64-pc-linux-gnu/nios2-elf/lib/libc.a(lib_a-mallocr.o)
 .debug_loc     0x0000000000002396       0xdf /home/alpha/altera/15.1/nios2eds/bin/gnu/H-x86_64-pc-linux-gnu/bin/../lib/gcc/nios2-elf/4.9.2/../../../../../H-x86_64-pc-linux-gnu/nios2-elf/lib/libc.a(lib_a-puts.o)
 .debug_loc     0x0000000000002475       0x58 /home/alpha/altera/15.1/nios2eds/bin/gnu/H-x86_64-pc-linux-gnu/bin/../lib/gcc/nios2-elf/4.9.2/../../../../../H-x86_64-pc-linux-gnu/nios2-elf/lib/libc.a(lib_a-sbrkr.o)
 .debug_loc     0x00000000000024cd       0xb0 /home/alpha/altera/15.1/nios2eds/bin/gnu/H-x86_64-pc-linux-gnu/bin/../lib/gcc/nios2-elf/4.9.2/../../../../../H-x86_64-pc-linux-gnu/nios2-elf/lib/libc.a(lib_a-strcmp.o)
 .debug_loc     0x000000000000257d       0x47 /home/alpha/altera/15.1/nios2eds/bin/gnu/H-x86_64-pc-linux-gnu/bin/../lib/gcc/nios2-elf/4.9.2/../../../../../H-x86_64-pc-linux-gnu/nios2-elf/lib/libc.a(lib_a-strlen.o)
 .debug_loc     0x00000000000025c4      0x4cf /home/alpha/altera/15.1/nios2eds/bin/gnu/H-x86_64-pc-linux-gnu/bin/../lib/gcc/nios2-elf/4.9.2/../../../../../H-x86_64-pc-linux-gnu/nios2-elf/lib/libc.a(lib_a-freer.o)
 .debug_loc     0x0000000000002a93      0x5e6 /home/alpha/altera/15.1/nios2eds/bin/gnu/H-x86_64-pc-linux-gnu/bin/../lib/gcc/nios2-elf/4.9.2/../../../../../H-x86_64-pc-linux-gnu/nios2-elf/lib/libc.a(lib_a-fvwrite.o)
 .debug_loc     0x0000000000003079      0x19f /home/alpha/altera/15.1/nios2eds/bin/gnu/H-x86_64-pc-linux-gnu/bin/../lib/gcc/nios2-elf/4.9.2/../../../../../H-x86_64-pc-linux-gnu/nios2-elf/lib/libc.a(lib_a-memchr.o)
 .debug_loc     0x0000000000003218      0x2a2 /home/alpha/altera/15.1/nios2eds/bin/gnu/H-x86_64-pc-linux-gnu/bin/../lib/gcc/nios2-elf/4.9.2/../../../../../H-x86_64-pc-linux-gnu/nios2-elf/lib/libc.a(lib_a-memcpy.o)
 .debug_loc     0x00000000000034ba      0x34f /home/alpha/altera/15.1/nios2eds/bin/gnu/H-x86_64-pc-linux-gnu/bin/../lib/gcc/nios2-elf/4.9.2/../../../../../H-x86_64-pc-linux-gnu/nios2-elf/lib/libc.a(lib_a-memmove.o)
 .debug_loc     0x0000000000003809      0xd88 /home/alpha/altera/15.1/nios2eds/bin/gnu/H-x86_64-pc-linux-gnu/bin/../lib/gcc/nios2-elf/4.9.2/../../../../../H-x86_64-pc-linux-gnu/nios2-elf/lib/libc.a(lib_a-reallocr.o)
 .debug_loc     0x0000000000004591       0xa2 /home/alpha/altera/15.1/nios2eds/bin/gnu/H-x86_64-pc-linux-gnu/bin/../lib/gcc/nios2-elf/4.9.2/../../../../../H-x86_64-pc-linux-gnu/nios2-elf/lib/libc.a(lib_a-wsetup.o)
 .debug_loc     0x0000000000004633      0x36d /home/alpha/altera/15.1/nios2eds/bin/gnu/H-x86_64-pc-linux-gnu/bin/../lib/gcc/nios2-elf/4.9.2/../../../../../H-x86_64-pc-linux-gnu/nios2-elf/lib/libc.a(lib_a-fflush.o)
 .debug_loc     0x00000000000049a0      0x208 /home/alpha/altera/15.1/nios2eds/bin/gnu/H-x86_64-pc-linux-gnu/bin/../lib/gcc/nios2-elf/4.9.2/../../../../../H-x86_64-pc-linux-gnu/nios2-elf/lib/libc.a(lib_a-findfp.o)
 .debug_loc     0x0000000000004ba8      0x25b /home/alpha/altera/15.1/nios2eds/bin/gnu/H-x86_64-pc-linux-gnu/bin/../lib/gcc/nios2-elf/4.9.2/../../../../../H-x86_64-pc-linux-gnu/nios2-elf/lib/libc.a(lib_a-fwalk.o)
 .debug_loc     0x0000000000004e03      0x132 /home/alpha/altera/15.1/nios2eds/bin/gnu/H-x86_64-pc-linux-gnu/bin/../lib/gcc/nios2-elf/4.9.2/../../../../../H-x86_64-pc-linux-gnu/nios2-elf/lib/libc.a(lib_a-makebuf.o)
 .debug_loc     0x0000000000004f35      0x190 /home/alpha/altera/15.1/nios2eds/bin/gnu/H-x86_64-pc-linux-gnu/bin/../lib/gcc/nios2-elf/4.9.2/../../../../../H-x86_64-pc-linux-gnu/nios2-elf/lib/libc.a(lib_a-memset.o)
 .debug_loc     0x00000000000050c5      0x319 /home/alpha/altera/15.1/nios2eds/bin/gnu/H-x86_64-pc-linux-gnu/bin/../lib/gcc/nios2-elf/4.9.2/../../../../../H-x86_64-pc-linux-gnu/nios2-elf/lib/libc.a(lib_a-stdio.o)
 .debug_loc     0x00000000000053de       0xb0 /home/alpha/altera/15.1/nios2eds/bin/gnu/H-x86_64-pc-linux-gnu/bin/../lib/gcc/nios2-elf/4.9.2/../../../../../H-x86_64-pc-linux-gnu/nios2-elf/lib/libc.a(lib_a-writer.o)
 .debug_loc     0x000000000000548e       0x58 /home/alpha/altera/15.1/nios2eds/bin/gnu/H-x86_64-pc-linux-gnu/bin/../lib/gcc/nios2-elf/4.9.2/../../../../../H-x86_64-pc-linux-gnu/nios2-elf/lib/libc.a(closer.o)
 .debug_loc     0x00000000000054e6      0x199 /home/alpha/altera/15.1/nios2eds/bin/gnu/H-x86_64-pc-linux-gnu/bin/../lib/gcc/nios2-elf/4.9.2/../../../../../H-x86_64-pc-linux-gnu/nios2-elf/lib/libc.a(lib_a-fclose.o)
 .debug_loc     0x000000000000567f       0x84 /home/alpha/altera/15.1/nios2eds/bin/gnu/H-x86_64-pc-linux-gnu/bin/../lib/gcc/nios2-elf/4.9.2/../../../../../H-x86_64-pc-linux-gnu/nios2-elf/lib/libc.a(lib_a-fstatr.o)
 .debug_loc     0x0000000000005703       0x58 /home/alpha/altera/15.1/nios2eds/bin/gnu/H-x86_64-pc-linux-gnu/bin/../lib/gcc/nios2-elf/4.9.2/../../../../../H-x86_64-pc-linux-gnu/nios2-elf/lib/libc.a(lib_a-isattyr.o)
 .debug_loc     0x000000000000575b       0xb0 /home/alpha/altera/15.1/nios2eds/bin/gnu/H-x86_64-pc-linux-gnu/bin/../lib/gcc/nios2-elf/4.9.2/../../../../../H-x86_64-pc-linux-gnu/nios2-elf/lib/libc.a(lib_a-lseekr.o)
 .debug_loc     0x000000000000580b       0xb0 /home/alpha/altera/15.1/nios2eds/bin/gnu/H-x86_64-pc-linux-gnu/bin/../lib/gcc/nios2-elf/4.9.2/../../../../../H-x86_64-pc-linux-gnu/nios2-elf/lib/libc.a(lib_a-readr.o)
 .debug_loc     0x00000000000058bb      0x273 /home/alpha/altera/15.1/nios2eds/bin/gnu/H-x86_64-pc-linux-gnu/bin/../lib/gcc/nios2-elf/4.9.2/libgcc.a(lib2-divmod.o)
 .debug_loc     0x0000000000005b2e       0x2c /home/alpha/altera/15.1/nios2eds/bin/gnu/H-x86_64-pc-linux-gnu/bin/../lib/gcc/nios2-elf/4.9.2/../../../../../H-x86_64-pc-linux-gnu/nios2-elf/lib/libc.a(lib_a-atexit.o)
 .debug_loc     0x0000000000005b5a       0x1e /home/alpha/altera/15.1/nios2eds/bin/gnu/H-x86_64-pc-linux-gnu/bin/../lib/gcc/nios2-elf/4.9.2/../../../../../H-x86_64-pc-linux-gnu/nios2-elf/lib/libc.a(lib_a-exit.o)
 .debug_loc     0x0000000000005b78      0x126 /home/alpha/altera/15.1/nios2eds/bin/gnu/H-x86_64-pc-linux-gnu/bin/../lib/gcc/nios2-elf/4.9.2/../../../../../H-x86_64-pc-linux-gnu/nios2-elf/lib/libc.a(lib_a-memcmp.o)
 .debug_loc     0x0000000000005c9e      0x185 /home/alpha/altera/15.1/nios2eds/bin/gnu/H-x86_64-pc-linux-gnu/bin/../lib/gcc/nios2-elf/4.9.2/../../../../../H-x86_64-pc-linux-gnu/nios2-elf/lib/libc.a(lib_a-__atexit.o)
 .debug_loc     0x0000000000005e23      0x1a6 /home/alpha/altera/15.1/nios2eds/bin/gnu/H-x86_64-pc-linux-gnu/bin/../lib/gcc/nios2-elf/4.9.2/../../../../../H-x86_64-pc-linux-gnu/nios2-elf/lib/libc.a(lib_a-__call_atexit.o)

.debug_macinfo
 *(.debug_macinfo)

.debug_weaknames
 *(.debug_weaknames)

.debug_funcnames
 *(.debug_funcnames)

.debug_typenames
 *(.debug_typenames)

.debug_varnames
 *(.debug_varnames)

.debug_alt_sim_info
                0x0000000000000000       0x30
 *(.debug_alt_sim_info)
 .debug_alt_sim_info
                0x0000000000000000       0x30 ../recorder_nios_bsp//obj/HAL/src/crt0.o
                0x0000000010000000                __alt_data_end = 0x10000000
                0x0000000010000000                PROVIDE (__alt_stack_pointer, __alt_data_end)
                0x000000000802ce50                PROVIDE (__alt_stack_limit, __alt_stack_base)
                0x000000000802ce50                PROVIDE (__alt_heap_start, end)
                0x0000000010000000                PROVIDE (__alt_heap_limit, 0x10000000)
OUTPUT(recorder_nios.elf elf32-littlenios2)

.debug_ranges   0x0000000000000000      0x9d8
 .debug_ranges  0x0000000000000000       0x20 ../recorder_nios_bsp//obj/HAL/src/crt0.o
 .debug_ranges  0x0000000000000020      0x128 obj/default/LCD/lcd_core.o
 .debug_ranges  0x0000000000000148       0x20 obj/default/audio/audio_core.o
 .debug_ranges  0x0000000000000168       0x18 obj/default/main.o
 .debug_ranges  0x0000000000000180      0x130 /home/alpha/altera/15.1/nios2eds/bin/gnu/H-x86_64-pc-linux-gnu/bin/../lib/gcc/nios2-elf/4.9.2/../../../../../H-x86_64-pc-linux-gnu/nios2-elf/lib/libstdc++.a(class_type_info.o)
 .debug_ranges  0x00000000000002b0       0x10 /home/alpha/altera/15.1/nios2eds/bin/gnu/H-x86_64-pc-linux-gnu/bin/../lib/gcc/nios2-elf/4.9.2/../../../../../H-x86_64-pc-linux-gnu/nios2-elf/lib/libstdc++.a(del_op.o)
 .debug_ranges  0x00000000000002c0       0x80 /home/alpha/altera/15.1/nios2eds/bin/gnu/H-x86_64-pc-linux-gnu/bin/../lib/gcc/nios2-elf/4.9.2/../../../../../H-x86_64-pc-linux-gnu/nios2-elf/lib/libstdc++.a(si_class_type_info.o)
 .debug_ranges  0x0000000000000340       0x58 /home/alpha/altera/15.1/nios2eds/bin/gnu/H-x86_64-pc-linux-gnu/bin/../lib/gcc/nios2-elf/4.9.2/../../../../../H-x86_64-pc-linux-gnu/nios2-elf/lib/libstdc++.a(tinfo.o)
 .debug_ranges  0x0000000000000398       0x18 /home/alpha/altera/15.1/nios2eds/bin/gnu/H-x86_64-pc-linux-gnu/bin/../lib/gcc/nios2-elf/4.9.2/../../../../../H-x86_64-pc-linux-gnu/nios2-elf/lib/libc.a(lib_a-malloc.o)
 .debug_ranges  0x00000000000003b0       0x48 /home/alpha/altera/15.1/nios2eds/bin/gnu/H-x86_64-pc-linux-gnu/bin/../lib/gcc/nios2-elf/4.9.2/../../../../../H-x86_64-pc-linux-gnu/nios2-elf/lib/libc.a(lib_a-mallocr.o)
 .debug_ranges  0x00000000000003f8       0x18 /home/alpha/altera/15.1/nios2eds/bin/gnu/H-x86_64-pc-linux-gnu/bin/../lib/gcc/nios2-elf/4.9.2/../../../../../H-x86_64-pc-linux-gnu/nios2-elf/lib/libc.a(lib_a-puts.o)
 .debug_ranges  0x0000000000000410       0x10 /home/alpha/altera/15.1/nios2eds/bin/gnu/H-x86_64-pc-linux-gnu/bin/../lib/gcc/nios2-elf/4.9.2/../../../../../H-x86_64-pc-linux-gnu/nios2-elf/lib/libc.a(lib_a-sbrkr.o)
 .debug_ranges  0x0000000000000420       0x10 /home/alpha/altera/15.1/nios2eds/bin/gnu/H-x86_64-pc-linux-gnu/bin/../lib/gcc/nios2-elf/4.9.2/../../../../../H-x86_64-pc-linux-gnu/nios2-elf/lib/libc.a(lib_a-strcmp.o)
 .debug_ranges  0x0000000000000430       0x10 /home/alpha/altera/15.1/nios2eds/bin/gnu/H-x86_64-pc-linux-gnu/bin/../lib/gcc/nios2-elf/4.9.2/../../../../../H-x86_64-pc-linux-gnu/nios2-elf/lib/libc.a(lib_a-strlen.o)
 .debug_ranges  0x0000000000000440       0x18 /home/alpha/altera/15.1/nios2eds/bin/gnu/H-x86_64-pc-linux-gnu/bin/../lib/gcc/nios2-elf/4.9.2/../../../../../H-x86_64-pc-linux-gnu/nios2-elf/lib/libc.a(lib_a-freer.o)
 .debug_ranges  0x0000000000000458       0x30 /home/alpha/altera/15.1/nios2eds/bin/gnu/H-x86_64-pc-linux-gnu/bin/../lib/gcc/nios2-elf/4.9.2/../../../../../H-x86_64-pc-linux-gnu/nios2-elf/lib/libc.a(lib_a-fvwrite.o)
 .debug_ranges  0x0000000000000488       0x10 /home/alpha/altera/15.1/nios2eds/bin/gnu/H-x86_64-pc-linux-gnu/bin/../lib/gcc/nios2-elf/4.9.2/../../../../../H-x86_64-pc-linux-gnu/nios2-elf/lib/libc.a(lib_a-memchr.o)
 .debug_ranges  0x0000000000000498       0x10 /home/alpha/altera/15.1/nios2eds/bin/gnu/H-x86_64-pc-linux-gnu/bin/../lib/gcc/nios2-elf/4.9.2/../../../../../H-x86_64-pc-linux-gnu/nios2-elf/lib/libc.a(lib_a-memcpy.o)
 .debug_ranges  0x00000000000004a8       0x10 /home/alpha/altera/15.1/nios2eds/bin/gnu/H-x86_64-pc-linux-gnu/bin/../lib/gcc/nios2-elf/4.9.2/../../../../../H-x86_64-pc-linux-gnu/nios2-elf/lib/libc.a(lib_a-memmove.o)
 .debug_ranges  0x00000000000004b8      0x148 /home/alpha/altera/15.1/nios2eds/bin/gnu/H-x86_64-pc-linux-gnu/bin/../lib/gcc/nios2-elf/4.9.2/../../../../../H-x86_64-pc-linux-gnu/nios2-elf/lib/libc.a(lib_a-reallocr.o)
 .debug_ranges  0x0000000000000600       0x40 /home/alpha/altera/15.1/nios2eds/bin/gnu/H-x86_64-pc-linux-gnu/bin/../lib/gcc/nios2-elf/4.9.2/../../../../../H-x86_64-pc-linux-gnu/nios2-elf/lib/libc.a(lib_a-wsetup.o)
 .debug_ranges  0x0000000000000640       0x58 /home/alpha/altera/15.1/nios2eds/bin/gnu/H-x86_64-pc-linux-gnu/bin/../lib/gcc/nios2-elf/4.9.2/../../../../../H-x86_64-pc-linux-gnu/nios2-elf/lib/libc.a(lib_a-fflush.o)
 .debug_ranges  0x0000000000000698       0xe8 /home/alpha/altera/15.1/nios2eds/bin/gnu/H-x86_64-pc-linux-gnu/bin/../lib/gcc/nios2-elf/4.9.2/../../../../../H-x86_64-pc-linux-gnu/nios2-elf/lib/libc.a(lib_a-findfp.o)
 .debug_ranges  0x0000000000000780       0x18 /home/alpha/altera/15.1/nios2eds/bin/gnu/H-x86_64-pc-linux-gnu/bin/../lib/gcc/nios2-elf/4.9.2/../../../../../H-x86_64-pc-linux-gnu/nios2-elf/lib/libc.a(lib_a-fwalk.o)
 .debug_ranges  0x0000000000000798       0x10 /home/alpha/altera/15.1/nios2eds/bin/gnu/H-x86_64-pc-linux-gnu/bin/../lib/gcc/nios2-elf/4.9.2/../../../../../H-x86_64-pc-linux-gnu/nios2-elf/lib/libc.a(lib_a-makebuf.o)
 .debug_ranges  0x00000000000007a8       0x10 /home/alpha/altera/15.1/nios2eds/bin/gnu/H-x86_64-pc-linux-gnu/bin/../lib/gcc/nios2-elf/4.9.2/../../../../../H-x86_64-pc-linux-gnu/nios2-elf/lib/libc.a(lib_a-memset.o)
 .debug_ranges  0x00000000000007b8       0x30 /home/alpha/altera/15.1/nios2eds/bin/gnu/H-x86_64-pc-linux-gnu/bin/../lib/gcc/nios2-elf/4.9.2/../../../../../H-x86_64-pc-linux-gnu/nios2-elf/lib/libc.a(lib_a-stdio.o)
 .debug_ranges  0x00000000000007e8       0x10 /home/alpha/altera/15.1/nios2eds/bin/gnu/H-x86_64-pc-linux-gnu/bin/../lib/gcc/nios2-elf/4.9.2/../../../../../H-x86_64-pc-linux-gnu/nios2-elf/lib/libc.a(lib_a-writer.o)
 .debug_ranges  0x00000000000007f8       0x10 /home/alpha/altera/15.1/nios2eds/bin/gnu/H-x86_64-pc-linux-gnu/bin/../lib/gcc/nios2-elf/4.9.2/../../../../../H-x86_64-pc-linux-gnu/nios2-elf/lib/libc.a(closer.o)
 .debug_ranges  0x0000000000000808       0x48 /home/alpha/altera/15.1/nios2eds/bin/gnu/H-x86_64-pc-linux-gnu/bin/../lib/gcc/nios2-elf/4.9.2/../../../../../H-x86_64-pc-linux-gnu/nios2-elf/lib/libc.a(lib_a-fclose.o)
 .debug_ranges  0x0000000000000850       0x10 /home/alpha/altera/15.1/nios2eds/bin/gnu/H-x86_64-pc-linux-gnu/bin/../lib/gcc/nios2-elf/4.9.2/../../../../../H-x86_64-pc-linux-gnu/nios2-elf/lib/libc.a(lib_a-fstatr.o)
 .debug_ranges  0x0000000000000860       0x10 /home/alpha/altera/15.1/nios2eds/bin/gnu/H-x86_64-pc-linux-gnu/bin/../lib/gcc/nios2-elf/4.9.2/../../../../../H-x86_64-pc-linux-gnu/nios2-elf/lib/libc.a(lib_a-isattyr.o)
 .debug_ranges  0x0000000000000870       0x10 /home/alpha/altera/15.1/nios2eds/bin/gnu/H-x86_64-pc-linux-gnu/bin/../lib/gcc/nios2-elf/4.9.2/../../../../../H-x86_64-pc-linux-gnu/nios2-elf/lib/libc.a(lib_a-lseekr.o)
 .debug_ranges  0x0000000000000880       0x10 /home/alpha/altera/15.1/nios2eds/bin/gnu/H-x86_64-pc-linux-gnu/bin/../lib/gcc/nios2-elf/4.9.2/../../../../../H-x86_64-pc-linux-gnu/nios2-elf/lib/libc.a(lib_a-readr.o)
 .debug_ranges  0x0000000000000890       0x60 ../recorder_nios_bsp//libucosii_bsp.a(altera_up_avalon_video_pixel_buffer_dma.o)
 .debug_ranges  0x00000000000008f0       0x28 ../recorder_nios_bsp//libucosii_bsp.a(alt_irq_entry.o)
 .debug_ranges  0x0000000000000918       0x10 ../recorder_nios_bsp//libucosii_bsp.a(alt_irq_handler.o)
 .debug_ranges  0x0000000000000928       0x30 ../recorder_nios_bsp//libucosii_bsp.a(alt_exception_entry.o)
 .debug_ranges  0x0000000000000958       0x18 ../recorder_nios_bsp//libucosii_bsp.a(alt_instruction_exception_entry.o)
 .debug_ranges  0x0000000000000970       0x10 /home/alpha/altera/15.1/nios2eds/bin/gnu/H-x86_64-pc-linux-gnu/bin/../lib/gcc/nios2-elf/4.9.2/../../../../../H-x86_64-pc-linux-gnu/nios2-elf/lib/libc.a(lib_a-atexit.o)
 .debug_ranges  0x0000000000000980       0x10 /home/alpha/altera/15.1/nios2eds/bin/gnu/H-x86_64-pc-linux-gnu/bin/../lib/gcc/nios2-elf/4.9.2/../../../../../H-x86_64-pc-linux-gnu/nios2-elf/lib/libc.a(lib_a-exit.o)
 .debug_ranges  0x0000000000000990       0x10 /home/alpha/altera/15.1/nios2eds/bin/gnu/H-x86_64-pc-linux-gnu/bin/../lib/gcc/nios2-elf/4.9.2/../../../../../H-x86_64-pc-linux-gnu/nios2-elf/lib/libc.a(lib_a-memcmp.o)
 .debug_ranges  0x00000000000009a0       0x10 /home/alpha/altera/15.1/nios2eds/bin/gnu/H-x86_64-pc-linux-gnu/bin/../lib/gcc/nios2-elf/4.9.2/../../../../../H-x86_64-pc-linux-gnu/nios2-elf/lib/libc.a(lib_a-__atexit.o)
 .debug_ranges  0x00000000000009b0       0x28 /home/alpha/altera/15.1/nios2eds/bin/gnu/H-x86_64-pc-linux-gnu/bin/../lib/gcc/nios2-elf/4.9.2/../../../../../H-x86_64-pc-linux-gnu/nios2-elf/lib/libc.a(lib_a-__call_atexit.o)
